(dp0
S'wait_for_start'
p1
I01
sS'waitlist'
p2
(lp3
(dp4
S'alivetime'
p5
F70.0
sS'name'
p6
S'GUEST2'
p7
sS'ipaddr'
p8
V127.0.0.1
p9
sS'session_id'
p10
I53270525
sS'port'
p11
I5001
sS'score'
p12
I0
sS'id'
p13
NsS'tank_id'
p14
I1
sa(dp15
S'alivetime'
p16
F70.0
sS'name'
p17
S'GUEST1'
p18
sS'ipaddr'
p19
V127.0.0.1
p20
sS'session_id'
p21
I79374256
sS'id'
p22
NsS'score'
p23
I660
sS'port'
p24
I5002
sS'tank_id'
p25
I0
sasS'battlelist'
p26
(dp27
V38148542
p28
(lp29
S'._._._._._._._._._._.\n| .       |       . |\n| |_._.   |   ._._| |\n| | ._.   |   ._. | |\n| | | ._.   ._. | | |\n| |   |       |   | |\n| | ._. ._._. ._. | |\n| | |   | . |   | | |\n| |_._.   |   ._._| |\n| |       |       | |\n|_._._._._|_._._._._|'
p30
a(lp31
(dp32
S'name'
p33
S'GUEST0'
p34
sS'ipaddr'
p35
V127.0.0.1
p36
sS'session_id'
p37
I3106264
sS'port'
p38
I5001
sS'score'
p39
I-1
sS'id'
p40
NsS'tank_id'
p41
I1
sa(dp42
S'alivetime'
p43
F4.0
sS'name'
p44
S'GUEST1'
p45
sS'ipaddr'
p46
V127.0.0.1
p47
sS'session_id'
p48
I67944878
sS'id'
p49
NsS'score'
p50
I0
sS'port'
p51
I5001
sS'tank_id'
p52
I1
saaI01
asV57009389
p53
(lp54
S'._._._._._._._._._._.\n| . . |_.   |_._.   |\n|_| | | ._. | ._._. |\n| ._|_._| | ._|_. | |\n| |_._._._._| ._._| |\n| . . . ._._._| ._._|\n| | | | | ._. | | . |\n| | | | ._| . |_._| |\n| | | | | | |_._| . |\n| ._| |_. |_._._._| |\n|_._._._._._._._._._|'
p55
a(lp56
(dp57
S'alivetime'
p58
F184.0
sS'name'
p59
S'GUEST2'
p60
sS'ipaddr'
p61
V127.0.0.1
p62
sS'session_id'
p63
I94904684
sS'port'
p64
I5001
sS'score'
p65
I0
sS'id'
p66
NsS'tank_id'
p67
I1
sa(dp68
S'alivetime'
p69
F184.0
sS'name'
p70
S'GUEST1'
p71
sS'ipaddr'
p72
V127.0.0.1
p73
sS'session_id'
p74
I65164868
sS'id'
p75
NsS'score'
p76
I0
sS'port'
p77
I5002
sS'tank_id'
p78
I0
saaI01
asV5416346
p79
(lp80
S'._._._._._._._._._._.\n| ._._._.   ._._._. |\n| | ._._.   ._._. | |\n| | | ._.   ._. | | |\n| | | |       | | | |\n|                   |\n| . . .       . . . |\n| | | |_.   ._| | | |\n| | |_._.   ._._| | |\n| |_._._.   ._._._| |\n|_._._._._._._._._._|'
p81
a(lp82
(dp83
S'name'
p84
S'GUEST2'
p85
sS'ipaddr'
p86
V127.0.0.1
p87
sS'session_id'
p88
I78483240
sS'port'
p89
I5001
sS'score'
p90
I-1
sS'id'
p91
NsS'tank_id'
p92
I1
sa(dp93
S'alivetime'
p94
F4.0
sS'name'
p95
S'GUEST1'
p96
sS'ipaddr'
p97
V127.0.0.1
p98
sS'session_id'
p99
I55028244
sS'id'
p100
NsS'score'
p101
I0
sS'port'
p102
I5001
sS'tank_id'
p103
I0
saaI01
asV30892894
p104
(lp105
S'._._._._._._._._._._.\n| ._._._._.     ._. |\n| |   | |     . | | |\n| |_. ._.   ._|_|   |\n| |_. |     | |   . |\n| |     .   |   ._| |\n|     . |     ._| . |\n|   ._|_|   ._| . | |\n| . | |   ._| ._| | |\n| |_|   ._| ._._._| |\n|_._._._._._._._._._|'
p106
ag3
aI01
asV85122526
p107
(lp108
S'._._._._._._._._._._.\n|   .   .   .   |   |\n| ._|_. |_._|_._._. |\n|   |   |   .   |   |\n|_._| ._._._|_._| ._|\n|   |   |   |   .   |\n| ._._._. ._. ._|_._|\n|   |   |   |   .   |\n|_._| ._|_. |_._| ._|\n|   .   |   |   |   |\n|_._|_._._._|_._._._|'
p109
a(lp110
(dp111
S'name'
p112
S'GUEST2'
p113
sS'ipaddr'
p114
V127.0.0.1
p115
sS'session_id'
p116
I66552138
sS'port'
p117
I5001
sS'score'
p118
I-1
sS'id'
p119
NsS'tank_id'
p120
I1
sa(dp121
S'alivetime'
p122
F4.0
sS'name'
p123
S'GUEST1'
p124
sS'ipaddr'
p125
V127.0.0.1
p126
sS'session_id'
p127
I54336948
sS'id'
p128
NsS'score'
p129
I0
sS'port'
p130
I5001
sS'tank_id'
p131
I1
saaI01
assS'start_time'
p132
F1414248479.723279
sS'battles'
p133
I5
sS'connection'
p134
I10
sS'battle_id'
p135
I30892894
s.