(dp0
S'battlelist'
p1
(dp2
V91972490
p3
(lp4
S'._._._._._._._._._._.\n|                   |\n| ._. ._.   ._. ._. |\n| | | | |   | | | | |\n|                   |\n|                   |\n| ._._._._._._._._. |\n|     |       |     |\n|     |   .   |     |\n|         |         |\n|_._._._._|_._._._._|'
p5
a(lp6
(dp7
S'name'
p8
NsS'ipaddr'
p9
V127.0.0.1
p10
sS'session_id'
p11
I98755219
sS'port'
p12
I5001
sS'score'
p13
I0
sS'id'
p14
NsS'tank_id'
p15
I2
sa(dp16
S'name'
p17
NsS'ipaddr'
p18
V127.0.0.1
p19
sS'session_id'
p20
I50375727
sS'port'
p21
I5002
sS'score'
p22
I-1
sS'id'
p23
NsS'tank_id'
p24
I2
sa(dp25
S'name'
p26
NsS'ipaddr'
p27
V127.0.0.1
p28
sS'session_id'
p29
I8045340
sS'port'
p30
I5003
sS'score'
p31
I-1
sS'id'
p32
NsS'tank_id'
p33
I2
saasV66216317
p34
(lp35
S'._._._._._._._._._._.\n| . . ._.   |     . |\n|_| |       | ._._| |\n| ._| ._.   ._|   | |\n| ._._._._._| . ._| |\n| . | ._._._._| . | |\n| | | |   .     | . |\n| | | |   |   ._. | |\n| | | |   |   ._|   |\n| ._| |_. |_._._._. |\n|_._._._._._._._._._|'
p36
a(lp37
(dp38
S'name'
p39
S'GUEST2'
p40
sS'ipaddr'
p41
V192.168.1.39
p42
sS'session_id'
p43
I4202447
sS'port'
p44
I8800
sS'score'
p45
I405
sS'deadtime'
p46
F2147483647.0
sS'id'
p47
NsS'tank_id'
p48
I2
sa(dp49
S'name'
p50
S'GUEST1'
p51
sS'ipaddr'
p52
V192.168.1.38
p53
sS'session_id'
p54
I30822814
sS'id'
p55
NsS'score'
p56
I0
sS'deadtime'
p57
F1412302230.85
sS'port'
p58
I8800
sS'tank_id'
p59
I2
saaI01
asV28157585
p60
(lp61
S'._._._._._._._._._._.\n|       |   . ._._. |\n|_.   ._|_._| | . | |\n| . . . |   . | | | |\n| | | | ._._|_._|_. |\n| |_._| .   | .   . |\n|_.   ._|_._. |_._| |\n| . . . . . | |   | |\n| | |_|_| | |_. . ._|\n| |_. | ._| | ._|_. |\n|_._._._._._._._._._|'
p62
a(lp63
(dp64
S'name'
p65
NsS'ipaddr'
p66
V192.168.1.36
p67
sS'session_id'
p68
I13388608
sS'port'
p69
I8800
sS'score'
p70
I-1
sS'id'
p71
NsS'tank_id'
p72
I0
sa(dp73
S'name'
p74
NsS'ipaddr'
p75
V192.168.1.37
p76
sS'session_id'
p77
I50234719
sS'port'
p78
I8800
sS'score'
p79
I0
sS'id'
p80
NsS'tank_id'
p81
I2
sa(dp82
S'name'
p83
NsS'ipaddr'
p84
V192.168.1.38
p85
sS'session_id'
p86
I18625010
sS'port'
p87
I8800
sS'score'
p88
I45
sS'id'
p89
NsS'tank_id'
p90
I2
saasV45807265
p91
(lp92
S'._._._._._._._._._._.\n| . . ._.   |     . |\n|_| |       | ._._| |\n| ._| ._.   ._|   | |\n| ._._._._._| . ._| |\n| . | ._._._._| . | |\n| | | |   .     | . |\n| | | |   |   ._. | |\n| | | |   |   ._|   |\n| ._| |_. |_._._._. |\n|_._._._._._._._._._|'
p93
a(lp94
(dp95
S'name'
p96
NsS'ipaddr'
p97
V127.0.0.1
p98
sS'session_id'
p99
I29892197
sS'port'
p100
I5001
sS'score'
p101
I0
sS'id'
p102
NsS'tank_id'
p103
I2
sa(dp104
S'name'
p105
NsS'ipaddr'
p106
V127.0.0.1
p107
sS'session_id'
p108
I79720406
sS'port'
p109
I5002
sS'score'
p110
I0
sS'id'
p111
NsS'tank_id'
p112
I2
sa(dp113
S'name'
p114
NsS'ipaddr'
p115
V127.0.0.1
p116
sS'session_id'
p117
I23163447
sS'port'
p118
I5003
sS'score'
p119
I945
sS'id'
p120
NsS'tank_id'
p121
I2
saasV8700278
p122
(lp123
S'._._._._._._._._._._.\n|                   |\n|   ._._._._._._.   |\n|   |           |   |\n|   |   . ._.       |\n|   |   |   |   .   |\n|       |_. |   |   |\n|   .           |   |\n|   |_._._._._._|   |\n|                   |\n|_._._._._._._._._._|'
p124
a(lp125
(dp126
S'name'
p127
S'GUEST2'
p128
sS'ipaddr'
p129
V192.168.1.35
p130
sS'session_id'
p131
I20936772
sS'port'
p132
I8800
sS'score'
p133
I150
sS'deadtime'
p134
F2147483647.0
sS'id'
p135
NsS'tank_id'
p136
I1
sa(dp137
S'name'
p138
S'GUEST1'
p139
sS'ipaddr'
p140
V192.168.1.36
p141
sS'session_id'
p142
I66244810
sS'id'
p143
NsS'score'
p144
I450
sS'deadtime'
p145
F1412309552.03
sS'port'
p146
I8800
sS'tank_id'
p147
I2
saaI01
asV29893889
p148
(lp149
S'._._._._._._._._._._.\n|                   |\n| ._. ._.   ._. ._. |\n| | | | |   | | | | |\n|                   |\n|                   |\n| ._._._._._._._._. |\n|     |       |     |\n|     |   .   |     |\n|         |         |\n|_._._._._|_._._._._|'
p150
a(lp151
(dp152
S'name'
p153
S'GUEST2'
p154
sS'ipaddr'
p155
V127.0.0.1
p156
sS'session_id'
p157
I78920461
sS'id'
p158
NsS'score'
p159
I0
sS'deadtime'
p160
F2147483647.0
sS'port'
p161
I5001
sS'tank_id'
p162
I2
sa(dp163
S'name'
p164
S'GUEST1'
p165
sS'ipaddr'
p166
V127.0.0.1
p167
sS'session_id'
p168
I64970549
sS'port'
p169
I5002
sS'score'
p170
I0
sS'deadtime'
p171
F2147483647.0
sS'id'
p172
NsS'tank_id'
p173
I2
saaI01
asV72535334
p174
(lp175
S'._._._._._._._._._._.\n| . | ._._._._. | . |\n| | ._._._._._._. | |\n| | ._._. . ._._. | |\n|_| |   . | .   | |_|\n| ._| ._| | |_. |_. |\n|_._._._. | ._._._._|\n|_. . |  ._.  | ._. |\n| ._| |  ._.  | | | |\n| | . |_.   ._|     |\n|_._|_._._._._._|_|_|'
p176
a(lp177
(dp178
S'name'
p179
S'GUEST3'
p180
sS'ipaddr'
p181
V127.0.0.1
p182
sS'session_id'
p183
I91495157
sS'port'
p184
I5001
sS'score'
p185
I0
sS'deadtime'
p186
F1412314081.33
sS'id'
p187
NsS'tank_id'
p188
I2
sa(dp189
S'name'
p190
S'GUEST1'
p191
sS'ipaddr'
p192
V127.0.0.1
p193
sS'session_id'
p194
I65732495
sS'port'
p195
I5002
sS'score'
p196
I0
sS'deadtime'
p197
F2147483647.0
sS'id'
p198
NsS'tank_id'
p199
I2
sa(dp200
S'name'
p201
S'GUEST2'
p202
sS'ipaddr'
p203
V127.0.0.1
p204
sS'session_id'
p205
I77607650
sS'id'
p206
NsS'score'
p207
I60
sS'deadtime'
p208
F2147483647.0
sS'port'
p209
I5003
sS'tank_id'
p210
I2
saaI01
asV73772492
p211
(lp212
S'._._._._._._._._._._.\n| . . ._.   |     . |\n|_| |       | ._._| |\n| ._| ._.   ._|   | |\n| ._._._._._| . ._| |\n| . | ._._._._| . | |\n| | | |   .     | . |\n| | | |   |   ._. | |\n| | | |   |   ._|   |\n| ._| |_. |_._._._. |\n|_._._._._._._._._._|'
p213
a(lp214
(dp215
S'name'
p216
S'GUEST2'
p217
sS'ipaddr'
p218
V127.0.0.1
p219
sS'session_id'
p220
I3141791
sS'port'
p221
I5001
sS'score'
p222
I-1
sS'id'
p223
NsS'tank_id'
p224
I2
sa(dp225
S'name'
p226
S'GUEST1'
p227
sS'ipaddr'
p228
V127.0.0.1
p229
sS'session_id'
p230
I58643848
sS'port'
p231
I5002
sS'score'
p232
I-1
sS'id'
p233
NsS'tank_id'
p234
I2
saaI00
asV0
p235
(lp236
S'._._._._._._._._._._.\n| ._._._.   ._._._. |\n| | ._.       ._. | |\n| | |_.       ._| | |\n| |_._._.   ._._._| |\n|                   |\n| ._._._.   ._._._. |\n| |     |   |     | |\n| |   ._|   |_.   | |\n| |_._._.   ._._._| |\n|_._._._._._._._._._|'
p237
a(lp238
(dp239
S'name'
p240
NsS'ipaddr'
p241
V127.0.0.1
p242
sS'session_id'
p243
I10551696
sS'port'
p244
I5001
sS'score'
p245
I0
sS'id'
p246
NsS'tank_id'
p247
I2
sa(dp248
S'name'
p249
NsS'ipaddr'
p250
V127.0.0.1
p251
sS'session_id'
p252
I90651377
sS'port'
p253
I5002
sS'score'
p254
I0
sS'id'
p255
NsS'tank_id'
p256
I2
saasV77970181
p257
(lp258
S'._._._._._._._._._._.\n| . | ._._._._. | . |\n| | ._._._._._._. | |\n| | ._._. . ._._. | |\n|_| |   . | .   | |_|\n| ._| ._| | |_. |_. |\n|_._._._. | ._._._._|\n|_. . |  ._.  | ._. |\n| ._| |  ._.  | | | |\n| | . |_.   ._|     |\n|_._|_._._._._._|_|_|'
p259
a(lp260
(dp261
S'name'
p262
NsS'ipaddr'
p263
V127.0.0.1
p264
sS'session_id'
p265
I99862257
sS'port'
p266
I5001
sS'score'
p267
I-1
sS'id'
p268
NsS'tank_id'
p269
I2
sa(dp270
S'name'
p271
NsS'ipaddr'
p272
V127.0.0.1
p273
sS'session_id'
p274
I65981634
sS'port'
p275
I5002
sS'score'
p276
I-1
sS'id'
p277
NsS'tank_id'
p278
I2
saasV50892810
p279
(lp280
S'._._._._._._._._._._.\n| ._._._.   ._._._. |\n| | ._._.   ._._. | |\n| | | ._.   ._. | | |\n| | | |       | | | |\n|                   |\n| . . .       . . . |\n| | | |_.   ._| | | |\n| | |_._.   ._._| | |\n| |_._._.   ._._._| |\n|_._._._._._._._._._|'
p281
a(lp282
(dp283
S'name'
p284
NsS'ipaddr'
p285
V192.168.1.37
p286
sS'session_id'
p287
I88412821
sS'port'
p288
I8800
sS'score'
p289
I405
sS'id'
p290
NsS'tank_id'
p291
I4
sa(dp292
S'name'
p293
NsS'ipaddr'
p294
V192.168.1.38
p295
sS'session_id'
p296
I27986718
sS'port'
p297
I8800
sS'score'
p298
I120
sS'id'
p299
NsS'tank_id'
p300
I2
saasV41987665
p301
(lp302
S'._._._._._._._._._._.\n|   |_. ._._. ._|   |\n|_.   |_.   ._|   ._|\n| |_.   |   |   ._| |\n| . |   ._._.   | . |\n| |               | |\n| | .   ._._.   . | |\n| ._|   .   .   |_. |\n|_|   ._|   |_.   |_|\n|   ._| ._._. |_.   |\n|_._|_._._._._._|_._|'
p303
a(lp304
(dp305
S'name'
p306
NsS'ipaddr'
p307
V127.0.0.1
p308
sS'session_id'
p309
I84020490
sS'port'
p310
I5001
sS'score'
p311
I0
sS'id'
p312
NsS'tank_id'
p313
I2
sa(dp314
S'name'
p315
NsS'ipaddr'
p316
V127.0.0.1
p317
sS'session_id'
p318
I50768198
sS'port'
p319
I5002
sS'score'
p320
I0
sS'id'
p321
NsS'tank_id'
p322
I2
sa(dp323
S'name'
p324
NsS'ipaddr'
p325
V127.0.0.1
p326
sS'session_id'
p327
I12836941
sS'port'
p328
I5003
sS'score'
p329
I1200
sS'id'
p330
NsS'tank_id'
p331
I2
saasV64589885
p332
(lp333
S'._._._._._._._._._._.\n|_. ._. ._. ._. ._. |\n| ._._._. ._._._. ._|\n|_. ._._._. ._._._. |\n| ._. ._. ._. ._. ._|\n|_.   ._._._._.   ._|\n|_. ._._.   ._._. ._|\n| ._._._.   ._._._. |\n|_.   ._._._._.   ._|\n|   ._._.   ._._.   |\n|_._._._._._._._._._|'
p334
a(lp335
(dp336
S'name'
p337
S'GUEST2'
p338
sS'ipaddr'
p339
V192.168.1.37
p340
sS'session_id'
p341
I64385099
sS'port'
p342
I8800
sS'score'
p343
I195
sS'deadtime'
p344
F1412304768.2
sS'id'
p345
NsS'tank_id'
p346
I2
sa(dp347
S'name'
p348
S'GUEST1'
p349
sS'ipaddr'
p350
V192.168.1.38
p351
sS'session_id'
p352
I13685006
sS'id'
p353
NsS'score'
p354
I450
sS'deadtime'
p355
F2147483647.0
sS'port'
p356
I8800
sS'tank_id'
p357
I2
saaI01
asV74058517
p358
(lp359
S'._._._._._._._._._._.\n| . . . .   . . . . |\n| | | | |   | | | | |\n| | | | |   | | | | |\n| ._._._.   ._._._. |\n|_._. .       . ._._|\n|   | | .   . | |   |\n|   | | |   | | |   |\n|   | | |_._| | |   |\n|   | |       | |   |\n|_._._|_._._._|_._._|'
p360
a(lp361
(dp362
S'name'
p363
S'GUEST2'
p364
sS'ipaddr'
p365
V127.0.0.1
p366
sS'session_id'
p367
I13927596
sS'id'
p368
NsS'score'
p369
I255
sS'deadtime'
p370
F2147483647.0
sS'port'
p371
I5001
sS'tank_id'
p372
I2
sa(dp373
S'name'
p374
S'GUEST1'
p375
sS'ipaddr'
p376
V127.0.0.1
p377
sS'session_id'
p378
I91531502
sS'port'
p379
I5002
sS'score'
p380
I0
sS'deadtime'
p381
F2147483647.0
sS'id'
p382
NsS'tank_id'
p383
I2
saaI01
asV10005042
p384
(lp385
S'._._._._._._._._._._.\n|   |  _._  |  _._  |\n|   |       |       |\n|   |       |       | \n|   |_.   ._|_.   ._|\n|   |   .   |   .   |\n|_.   ._|_.   ._|   |\n|       |       |   |\n|       |       |   |\n|  _._  |  _._  |   |\n|_._._._|_._._._|_._|'
p386
a(lp387
(dp388
S'name'
p389
S'USER'
p390
sS'ipaddr'
p391
V192.168.1.38
p392
sS'session_id'
p393
I63927500
sS'port'
p394
I8800
sS'score'
p395
I680
sS'id'
p396
V1000
p397
sS'tank_id'
p398
I2
sa(dp399
S'name'
p400
NsS'ipaddr'
p401
V192.168.1.37
p402
sS'session_id'
p403
I14389500
sS'port'
p404
I8800
sS'score'
p405
I400
sS'id'
p406
NsS'tank_id'
p407
I1
saasV58511651
p408
(lp409
S'._._._._._._._._._._.\n|   .   .   .   |   |\n| ._|_. |_._|_._._. |\n|   |   |   .   |   |\n|_._| ._._._|_._| ._|\n|   |   |   |   .   |\n| ._._._. ._. ._|_._|\n|   |   |   |   .   |\n|_._| ._|_. |_._| ._|\n|   .   |   |   |   |\n|_._|_._._._|_._._._|'
p410
a(lp411
(dp412
S'name'
p413
NsS'ipaddr'
p414
V192.168.1.37
p415
sS'session_id'
p416
I68556656
sS'port'
p417
I8800
sS'score'
p418
I165
sS'id'
p419
NsS'tank_id'
p420
I1
sa(dp421
S'name'
p422
NsS'ipaddr'
p423
V192.168.1.36
p424
sS'session_id'
p425
I75139461
sS'port'
p426
I8800
sS'score'
p427
I150
sS'id'
p428
NsS'tank_id'
p429
I1
sa(dp430
S'name'
p431
NsS'ipaddr'
p432
V192.168.1.38
p433
sS'session_id'
p434
I41423193
sS'port'
p435
I8800
sS'score'
p436
I525
sS'id'
p437
NsS'tank_id'
p438
I2
saasV81256350
p439
(lp440
S'._._._._._._._._._._.\n|_. ._. ._. ._. ._. |\n| ._._._. ._._._. ._|\n|_. ._._._. ._._._. |\n| ._. ._. ._. ._. ._|\n|_.   ._._._._.   ._|\n|_. ._._.   ._._. ._|\n| ._._._.   ._._._. |\n|_.   ._._._._.   ._|\n|   ._._.   ._._.   |\n|_._._._._._._._._._|'
p441
a(lp442
(dp443
S'name'
p444
S'USER'
p445
sS'ipaddr'
p446
V192.168.1.36
p447
sS'session_id'
p448
I4785421
sS'port'
p449
I8800
sS'score'
p450
I-1
sS'id'
p451
V1000
p452
sS'tank_id'
p453
I2
sa(dp454
S'name'
p455
S'GUEST1'
p456
sS'ipaddr'
p457
V127.0.0.1
p458
sS'session_id'
p459
I40564917
sS'port'
p460
I5001
sS'score'
p461
I0
sS'id'
p462
NsS'tank_id'
p463
I2
saasV75437111
p464
(lp465
S'._._._._._._._._._._.\n|   ._._.   ._._.   |\n|     |     |_. |   |\n|     |     |   |   |\n|     |     |   |   |\n|                   |\n|   ._. .   . ._.   |\n|   | | |   |_|     |\n|   | | |   |_.     |\n|   | |_|   | |_.   |\n|_._._._._._._._._._|'
p466
a(lp467
(dp468
S'name'
p469
S'GUEST4'
p470
sS'ipaddr'
p471
V127.0.0.1
p472
sS'session_id'
p473
I40029095
sS'id'
p474
NsS'score'
p475
I0
sS'deadtime'
p476
F1412313112.88
sS'port'
p477
I5003
sS'tank_id'
p478
I2
sa(dp479
S'name'
p480
S'GUEST1'
p481
sS'ipaddr'
p482
V127.0.0.1
p483
sS'session_id'
p484
I4755304
sS'id'
p485
NsS'score'
p486
I405
sS'deadtime'
p487
F2147483647.0
sS'port'
p488
I5002
sS'tank_id'
p489
I2
sa(dp490
S'name'
p491
S'GUEST2'
p492
sS'ipaddr'
p493
V127.0.0.1
p494
sS'session_id'
p495
I75460865
sS'port'
p496
I5001
sS'score'
p497
I510
sS'deadtime'
p498
F1412313165.93
sS'id'
p499
NsS'tank_id'
p500
I2
saaI01
asV97562977
p501
(lp502
S'._._._._._._._._._._.\n| .               . |\n| |   ._.   ._.   | |\n| |   |       |   | |\n| |               | |\n|_._._._. . ._._._._|\n| ._. | ._| | ._._. |\n|_. |_._. | | | . | |\n| ._| ._._|_._._| | |\n| | . | . | ._._._| |\n|_._|_._|_._._._._._|'
p503
a(lp504
(dp505
S'name'
p506
NsS'ipaddr'
p507
V127.0.0.1
p508
sS'session_id'
p509
I1331005
sS'port'
p510
I5001
sS'score'
p511
I0
sS'id'
p512
NsS'tank_id'
p513
I2
sa(dp514
S'name'
p515
NsS'ipaddr'
p516
V127.0.0.1
p517
sS'session_id'
p518
I46976877
sS'port'
p519
I5002
sS'score'
p520
I150
sS'id'
p521
NsS'tank_id'
p522
I2
saasV91904636
p523
(lp524
S'._._._._._._._._._._.\n| ._. ._. | ._. ._. |\n| | ._. | | |     | |\n|   |_. |_.         |\n| |_._.   | |_. ._| |\n|_._. |_._|_._. ._._|\n| ._._._._|         |\n| | . ._. |         |\n| | | | | .         |\n|_._|_. | |         |\n|_._._._._|_._._._._|'
p525
a(lp526
(dp527
S'name'
p528
NsS'ipaddr'
p529
V192.168.1.39
p530
sS'session_id'
p531
I60899194
sS'port'
p532
I8800
sS'score'
p533
I660
sS'id'
p534
NsS'tank_id'
p535
I2
sa(dp536
S'name'
p537
NsS'ipaddr'
p538
V192.168.1.38
p539
sS'session_id'
p540
I43090093
sS'port'
p541
I8800
sS'score'
p542
I45
sS'id'
p543
NsS'tank_id'
p544
I1
sa(dp545
S'name'
p546
NsS'ipaddr'
p547
V192.168.1.37
p548
sS'session_id'
p549
I47430277
sS'port'
p550
I8800
sS'score'
p551
I960
sS'id'
p552
NsS'tank_id'
p553
I1
sa(dp554
S'name'
p555
NsS'ipaddr'
p556
V192.168.1.35
p557
sS'session_id'
p558
I57960739
sS'port'
p559
I8800
sS'score'
p560
I0
sS'id'
p561
NsS'tank_id'
p562
I2
sa(dp563
S'name'
p564
NsS'ipaddr'
p565
V192.168.1.36
p566
sS'session_id'
p567
I13568737
sS'port'
p568
I8800
sS'score'
p569
I0
sS'id'
p570
NsS'tank_id'
p571
I2
saasV16226401
p572
(lp573
S'._._._._._._._._._._.\n| . . . .   . . . . |\n| | | | |   | | | | |\n| | | | |   | | | | |\n| ._._._.   ._._._. |\n|_._. .       . ._._|\n|   | | .   . | |   |\n|   | | |   | | |   |\n|   | | |_._| | |   |\n|   | |       | |   |\n|_._._|_._._._|_._._|'
p574
a(lp575
(dp576
S'name'
p577
S'USER'
p578
sS'ipaddr'
p579
V192.168.1.37
p580
sS'session_id'
p581
I61084301
sS'port'
p582
I8800
sS'score'
p583
I405
sS'id'
p584
V1001
p585
sS'tank_id'
p586
I2
sa(dp587
S'name'
p588
S'USER'
p589
sS'ipaddr'
p590
V192.168.1.38
p591
sS'session_id'
p592
I51708177
sS'port'
p593
I8800
sS'score'
p594
I300
sS'id'
p595
V1000
p596
sS'tank_id'
p597
I2
saasV83554085
p598
(lp599
S'._._._._._._._._._._.\n|   ._._.   ._._.   |\n|     |     |_. |   |\n|     |     |   |   |\n|     |     |   |   |\n|                   |\n|   ._. .   . ._.   |\n|   | | |   |_|     |\n|   | | |   |_.     |\n|   | |_|   | |_.   |\n|_._._._._._._._._._|'
p600
a(lp601
(dp602
S'name'
p603
S'GUEST2'
p604
sS'ipaddr'
p605
V127.0.0.1
p606
sS'session_id'
p607
I12270935
sS'port'
p608
I5001
sS'score'
p609
I0
sS'id'
p610
NsS'tank_id'
p611
I2
sa(dp612
S'name'
p613
S'GUEST1'
p614
sS'ipaddr'
p615
V127.0.0.1
p616
sS'session_id'
p617
I35126305
sS'port'
p618
I5002
sS'score'
p619
I0
sS'id'
p620
NsS'tank_id'
p621
I2
saasV57497062
p622
(lp623
S'._._._._._._._._._._.\n| ._._._.   ._._._. |\n| | ._._.   ._._. | |\n| | | ._.   ._. | | |\n| | | |       | | | |\n|                   |\n| . . .       . . . |\n| | | |_.   ._| | | |\n| | |_._.   ._._| | |\n| |_._._.   ._._._| |\n|_._._._._._._._._._|'
p624
a(lp625
(dp626
S'name'
p627
NsS'ipaddr'
p628
V192.168.1.36
p629
sS'session_id'
p630
I15157427
sS'port'
p631
I8800
sS'score'
p632
I-1
sS'id'
p633
NsS'tank_id'
p634
I2
sa(dp635
S'name'
p636
NsS'ipaddr'
p637
V192.168.1.35
p638
sS'session_id'
p639
I55597961
sS'port'
p640
I8800
sS'score'
p641
I0
sS'id'
p642
NsS'tank_id'
p643
I2
sa(dp644
S'name'
p645
NsS'ipaddr'
p646
V192.168.1.37
p647
sS'session_id'
p648
I12882661
sS'port'
p649
I8800
sS'score'
p650
I0
sS'id'
p651
NsS'tank_id'
p652
I2
saasV87200848
p653
(lp654
S'._._._._._._._._._._.\n| . . |_.   |_._.   |\n|_| | | ._. | ._._. |\n| ._|_._| | ._|_. | |\n| |_._._._._| ._._| |\n| . . . ._._._| ._._|\n| | | | | ._. | | . |\n| | | | ._| . |_._| |\n| | | | | | |_._| . |\n| ._| |_. |_._._._| |\n|_._._._._._._._._._|'
p655
a(lp656
(dp657
S'name'
p658
NsS'ipaddr'
p659
V127.0.0.1
p660
sS'session_id'
p661
I78866948
sS'port'
p662
I5001
sS'score'
p663
I-1
sS'id'
p664
NsS'tank_id'
p665
I2
sa(dp666
S'name'
p667
NsS'ipaddr'
p668
V127.0.0.1
p669
sS'session_id'
p670
I41014196
sS'port'
p671
I5001
sS'score'
p672
I0
sS'id'
p673
NsS'tank_id'
p674
I2
saasV34730539
p675
(lp676
S'._._._._._._._._._._.\n| ._._._.   ._._._. |\n| | ._.       ._. | |\n| | |_.       ._| | |\n| |_._._.   ._._._| |\n|                   |\n| ._._._.   ._._._. |\n| |     |   |     | |\n| |   ._|   |_.   | |\n| |_._._.   ._._._| |\n|_._._._._._._._._._|'
p677
a(lp678
(dp679
S'name'
p680
S'GUEST3'
p681
sS'ipaddr'
p682
V192.168.1.36
p683
sS'session_id'
p684
I86088292
sS'id'
p685
NsS'score'
p686
I600
sS'deadtime'
p687
F1412309669.36
sS'port'
p688
I8800
sS'tank_id'
p689
I2
sa(dp690
S'name'
p691
S'GUEST1'
p692
sS'ipaddr'
p693
V192.168.1.35
p694
sS'session_id'
p695
I34057338
sS'port'
p696
I8800
sS'score'
p697
I300
sS'deadtime'
p698
F2147483647.0
sS'id'
p699
NsS'tank_id'
p700
I1
sa(dp701
S'name'
p702
S'GUEST2'
p703
sS'ipaddr'
p704
V192.168.1.37
p705
sS'session_id'
p706
I25907996
sS'port'
p707
I8800
sS'score'
p708
I0
sS'deadtime'
p709
F1412309698.93
sS'id'
p710
NsS'tank_id'
p711
I2
saaI01
asV70552129
p712
(lp713
S'._._._._._._._._._._.\n| . . |_.   |_._.   |\n|_| | | ._. | ._._. |\n| ._|_._| | ._|_. | |\n| |_._._._._| ._._| |\n| . . . ._._._| ._._|\n| | | | | ._. | | . |\n| | | | ._| . |_._| |\n| | | | | | |_._| . |\n| ._| |_. |_._._._| |\n|_._._._._._._._._._|'
p714
a(lp715
(dp716
S'name'
p717
S'GUEST2'
p718
sS'ipaddr'
p719
V192.168.1.38
p720
sS'session_id'
p721
I42865997
sS'port'
p722
I8800
sS'score'
p723
I315
sS'deadtime'
p724
F1412306702.22
sS'id'
p725
NsS'tank_id'
p726
I2
sa(dp727
S'name'
p728
S'GUEST1'
p729
sS'ipaddr'
p730
V192.168.1.39
p731
sS'session_id'
p732
I834738
sS'id'
p733
NsS'score'
p734
I645
sS'deadtime'
p735
F2147483647.0
sS'port'
p736
I8800
sS'tank_id'
p737
I2
saaI01
asV6301894
p738
(lp739
S'._._._._._._._._._._.\n| . | ._._._._. | . |\n| | ._._._._._._. | |\n| | ._._. . ._._. | |\n|_| |   . | .   | |_|\n| ._| ._| | |_. |_. |\n|_._._._. | ._._._._|\n|_. . |  ._.  | ._. |\n| ._| |  ._.  | | | |\n| | . |_.   ._|     |\n|_._|_._._._._._|_|_|'
p740
a(lp741
(dp742
S'name'
p743
S'GUEST3'
p744
sS'ipaddr'
p745
V192.168.1.36
p746
sS'session_id'
p747
I94425694
sS'port'
p748
I8800
sS'score'
p749
I0
sS'deadtime'
p750
F1412311655.18
sS'id'
p751
NsS'tank_id'
p752
I1
sa(dp753
S'name'
p754
S'GUEST1'
p755
sS'ipaddr'
p756
V192.168.1.39
p757
sS'session_id'
p758
I91421736
sS'id'
p759
NsS'score'
p760
I0
sS'deadtime'
p761
F2147483647.0
sS'port'
p762
I8800
sS'tank_id'
p763
I2
sa(dp764
S'name'
p765
S'GUEST2'
p766
sS'ipaddr'
p767
V192.168.1.38
p768
sS'session_id'
p769
I14496376
sS'port'
p770
I8800
sS'score'
p771
I0
sS'deadtime'
p772
F1412311655.29
sS'id'
p773
NsS'tank_id'
p774
I1
saaI01
asV96124982
p775
(lp776
S'._._._._._._._._._._.\n|   | | | | | | |   |\n|_.               ._|\n|_.     ._._.     ._|\n|_.   .   |   .   ._|\n|_.   |_.   ._|   ._|\n|_.   |   .   |   ._|\n|_.     ._|_.     ._|\n|_.               ._|\n|   . . . . . . .   |\n|_._|_|_|_|_|_|_|_._|'
p777
a(lp778
(dp779
S'name'
p780
S'GUEST2'
p781
sS'ipaddr'
p782
V127.0.0.1
p783
sS'session_id'
p784
I1935071
sS'port'
p785
I5001
sS'score'
p786
I-1
sS'id'
p787
NsS'tank_id'
p788
I2
sa(dp789
S'name'
p790
S'GUEST1'
p791
sS'ipaddr'
p792
V127.0.0.1
p793
sS'session_id'
p794
I14320077
sS'port'
p795
I5002
sS'score'
p796
I-1
sS'id'
p797
NsS'tank_id'
p798
I2
saaI00
asV24986192
p799
(lp800
S'._._._._._._._._._._.\n| . . |_.   |_._.   |\n|_| | | ._. | ._._. |\n| ._|_._| | ._|_. | |\n| |_._._._._| ._._| |\n| . . . ._._._| ._._|\n| | | | | ._. | | . |\n| | | | ._| . |_._| |\n| | | | | | |_._| . |\n| ._| |_. |_._._._| |\n|_._._._._._._._._._|'
p801
a(lp802
(dp803
S'name'
p804
S'GUEST2'
p805
sS'ipaddr'
p806
V192.168.1.38
p807
sS'session_id'
p808
I7204286
sS'id'
p809
NsS'score'
p810
I0
sS'deadtime'
p811
F1412302639.71
sS'port'
p812
I8800
sS'tank_id'
p813
I2
sa(dp814
S'name'
p815
S'GUEST1'
p816
sS'ipaddr'
p817
V192.168.1.39
p818
sS'session_id'
p819
I51411259
sS'port'
p820
I8800
sS'score'
p821
I-1
sS'id'
p822
NsS'tank_id'
p823
I2
saaI01
asV39736671
p824
(lp825
S'._._._._._._._._._._.\n|   |  _._  |  _._  |\n|   |       |       |\n|   |       |       | \n|   |_.   ._|_.   ._|\n|   |   .   |   .   |\n|_.   ._|_.   ._|   |\n|       |       |   |\n|       |       |   |\n|  _._  |  _._  |   |\n|_._._._|_._._._|_._|'
p826
a(lp827
(dp828
S'name'
p829
S'GUEST2'
p830
sS'ipaddr'
p831
V192.168.1.39
p832
sS'session_id'
p833
I98812515
sS'id'
p834
NsS'score'
p835
I15
sS'deadtime'
p836
F1412306802.46
sS'port'
p837
I8800
sS'tank_id'
p838
I2
sa(dp839
S'name'
p840
S'GUEST1'
p841
sS'ipaddr'
p842
V192.168.1.38
p843
sS'session_id'
p844
I32052814
sS'port'
p845
I8800
sS'score'
p846
I330
sS'deadtime'
p847
F2147483647.0
sS'id'
p848
NsS'tank_id'
p849
I2
saaI01
asV79748965
p850
(lp851
S'._._._._._._._._._._.\n| ._._._.   ._._._. |\n| | ._._.   ._._. | |\n| | | ._.   ._. | | |\n| | | |       | | | |\n|                   |\n| . . .       . . . |\n| | | |_.   ._| | | |\n| | |_._.   ._._| | |\n| |_._._.   ._._._| |\n|_._._._._._._._._._|'
p852
a(lp853
(dp854
S'name'
p855
S'USER'
p856
sS'ipaddr'
p857
V192.168.1.37
p858
sS'session_id'
p859
I93909380
sS'port'
p860
I8800
sS'score'
p861
I225
sS'id'
p862
V1001
p863
sS'tank_id'
p864
I5
sa(dp865
S'name'
p866
S'USER'
p867
sS'ipaddr'
p868
V192.168.1.38
p869
sS'session_id'
p870
I42274812
sS'port'
p871
I8800
sS'score'
p872
I450
sS'id'
p873
V1000
p874
sS'tank_id'
p875
I2
saasV83631728
p876
(lp877
S'._._._._._._._._._._.\n| .       |       . |\n| |_._.   |   ._._| |\n| | ._.   |   ._. | |\n| | | ._.   ._. | | |\n| |   |       |   | |\n| | ._. ._._. ._. | |\n| | |   | . |   | | |\n| |_._.   |   ._._| |\n| |       |       | |\n|_._._._._|_._._._._|'
p878
a(lp879
(dp880
S'name'
p881
S'USER'
p882
sS'ipaddr'
p883
V192.168.1.37
p884
sS'session_id'
p885
I66797263
sS'port'
p886
I8800
sS'score'
p887
I315
sS'id'
p888
V1001
p889
sS'tank_id'
p890
I4
sa(dp891
S'name'
p892
NsS'ipaddr'
p893
V192.168.1.38
p894
sS'session_id'
p895
I38782848
sS'port'
p896
I8800
sS'score'
p897
I30
sS'id'
p898
NsS'tank_id'
p899
I1
sa(dp900
S'name'
p901
S'USER'
p902
sS'ipaddr'
p903
V192.168.1.35
p904
sS'session_id'
p905
I68382616
sS'port'
p906
I8800
sS'score'
p907
I420
sS'id'
p908
V1000
p909
sS'tank_id'
p910
I2
saasV14465935
p911
(lp912
S'._._._._._._._._._._.\n|   | | | | | | |   |\n|_.               ._|\n|_.     ._._.     ._|\n|_.   .   |   .   ._|\n|_.   |_.   ._|   ._|\n|_.   |   .   |   ._|\n|_.     ._|_.     ._|\n|_.               ._|\n|   . . . . . . .   |\n|_._|_|_|_|_|_|_|_._|'
p913
a(lp914
(dp915
S'name'
p916
S'GUEST2'
p917
sS'ipaddr'
p918
V127.0.0.1
p919
sS'session_id'
p920
I47639618
sS'port'
p921
I5002
sS'score'
p922
I405
sS'id'
p923
NsS'tank_id'
p924
I2
sa(dp925
S'name'
p926
S'GUEST1'
p927
sS'ipaddr'
p928
V127.0.0.1
p929
sS'session_id'
p930
I46574765
sS'port'
p931
I5001
sS'score'
p932
I0
sS'id'
p933
NsS'tank_id'
p934
I2
saasV67903806
p935
(lp936
S'._._._._._._._._._._.\n| ._._._._.     ._. |\n| |   | |     . | | |\n| |_. ._.   ._|_|   |\n| |_. |     | |   . |\n| |     .   |   ._| |\n|     . |     ._| . |\n|   ._|_|   ._| . | |\n| . | |   ._| ._| | |\n| |_|   ._| ._._._| |\n|_._._._._._._._._._|'
p937
a(lp938
(dp939
S'name'
p940
NsS'ipaddr'
p941
V127.0.0.1
p942
sS'session_id'
p943
I73441314
sS'port'
p944
I5001
sS'score'
p945
I-1
sS'id'
p946
NsS'tank_id'
p947
I2
sa(dp948
S'name'
p949
NsS'ipaddr'
p950
V127.0.0.1
p951
sS'session_id'
p952
I94656473
sS'port'
p953
I5002
sS'score'
p954
I-1
sS'id'
p955
NsS'tank_id'
p956
I2
sa(dp957
S'name'
p958
NsS'ipaddr'
p959
V127.0.0.1
p960
sS'session_id'
p961
I15989341
sS'port'
p962
I5003
sS'score'
p963
I-1
sS'id'
p964
NsS'tank_id'
p965
I2
saasV94022534
p966
(lp967
S'._._._._._._._._._._.\n|_. ._. ._. ._. ._. |\n| ._._._. ._._._. ._|\n|_. ._._._. ._._._. |\n| ._. ._. ._. ._. ._|\n|_.   ._._._._.   ._|\n|_. ._._.   ._._. ._|\n| ._._._.   ._._._. |\n|_.   ._._._._.   ._|\n|   ._._.   ._._.   |\n|_._._._._._._._._._|'
p968
a(lp969
(dp970
S'name'
p971
S'GUEST3'
p972
sS'ipaddr'
p973
V127.0.0.1
p974
sS'session_id'
p975
I87466340
sS'port'
p976
I5001
sS'score'
p977
I0
sS'deadtime'
p978
F2147483647.0
sS'id'
p979
NsS'tank_id'
p980
I2
sa(dp981
S'name'
p982
S'GUEST1'
p983
sS'ipaddr'
p984
V127.0.0.1
p985
sS'session_id'
p986
I14547692
sS'id'
p987
NsS'score'
p988
I0
sS'deadtime'
p989
F1412306335.71
sS'port'
p990
I5002
sS'tank_id'
p991
I2
saaI01
asV23961807
p992
(lp993
S'._._._._._._._._._._.\n|                   |\n| ._. ._.   ._. ._. |\n| | | | |   | | | | |\n|                   |\n|                   |\n| ._._._._._._._._. |\n|     |       |     |\n|     |   .   |     |\n|         |         |\n|_._._._._|_._._._._|'
p994
a(lp995
(dp996
S'name'
p997
S'GUEST2'
p998
sS'ipaddr'
p999
V192.168.1.38
p1000
sS'session_id'
p1001
I92539446
sS'port'
p1002
I8800
sS'score'
p1003
I360
sS'deadtime'
p1004
F2147483647.0
sS'id'
p1005
NsS'tank_id'
p1006
I2
sa(dp1007
S'name'
p1008
S'GUEST1'
p1009
sS'ipaddr'
p1010
V192.168.1.37
p1011
sS'session_id'
p1012
I67122727
sS'id'
p1013
NsS'score'
p1014
I15
sS'deadtime'
p1015
F1412304910.98
sS'port'
p1016
I8800
sS'tank_id'
p1017
I2
saaI01
asV25017549
p1018
(lp1019
S'._._._._._._._._._._.\n|                   |\n|   ._._._._._._.   |\n|   |           |   |\n|   |   . ._.       |\n|   |   |   |   .   |\n|       |_. |   |   |\n|   .           |   |\n|   |_._._._._._|   |\n|                   |\n|_._._._._._._._._._|'
p1020
a(lp1021
(dp1022
S'name'
p1023
NsS'ipaddr'
p1024
V127.0.0.1
p1025
sS'session_id'
p1026
I70815129
sS'port'
p1027
I5002
sS'score'
p1028
I-1
sS'id'
p1029
NsS'tank_id'
p1030
I2
sa(dp1031
S'name'
p1032
S'USER'
p1033
sS'ipaddr'
p1034
V127.0.0.1
p1035
sS'session_id'
p1036
I14220821
sS'port'
p1037
I5001
sS'score'
p1038
I0
sS'id'
p1039
V1000
p1040
sS'tank_id'
p1041
I2
saasV39308019
p1042
(lp1043
S'._._._._._._._._._._.\n| .       |       . |\n| |_._.   |   ._._| |\n| | ._.   |   ._. | |\n| | | ._.   ._. | | |\n| |   |       |   | |\n| | ._. ._._. ._. | |\n| | |   | . |   | | |\n| |_._.   |   ._._| |\n| |       |       | |\n|_._._._._|_._._._._|'
p1044
a(lp1045
(dp1046
S'name'
p1047
S'GUEST2'
p1048
sS'ipaddr'
p1049
V127.0.0.1
p1050
sS'session_id'
p1051
I34025270
sS'id'
p1052
NsS'score'
p1053
I0
sS'deadtime'
p1054
F2147483647.0
sS'port'
p1055
I5001
sS'tank_id'
p1056
I2
sa(dp1057
S'name'
p1058
S'GUEST1'
p1059
sS'ipaddr'
p1060
V127.0.0.1
p1061
sS'session_id'
p1062
I46623681
sS'port'
p1063
I5002
sS'score'
p1064
I0
sS'deadtime'
p1065
F2147483647.0
sS'id'
p1066
NsS'tank_id'
p1067
I2
saaI01
asV45044211
p1068
(lp1069
S'._._._._._._._._._._.\n| . | ._._._._. | . |\n| | ._._._._._._. | |\n| | ._._. . ._._. | |\n|_| |   . | .   | |_|\n| ._| ._| | |_. |_. |\n|_._._._. | ._._._._|\n|_. . |  ._.  | ._. |\n| ._| |  ._.  | | | |\n| | . |_.   ._|     |\n|_._|_._._._._._|_|_|'
p1070
a(lp1071
(dp1072
S'name'
p1073
S'GUEST2'
p1074
sS'ipaddr'
p1075
V127.0.0.1
p1076
sS'session_id'
p1077
I20959875
sS'port'
p1078
I5001
sS'score'
p1079
I-1
sS'id'
p1080
NsS'tank_id'
p1081
I2
sa(dp1082
S'name'
p1083
S'GUEST1'
p1084
sS'ipaddr'
p1085
V127.0.0.1
p1086
sS'session_id'
p1087
I54275214
sS'port'
p1088
I5002
sS'score'
p1089
I-1
sS'id'
p1090
NsS'tank_id'
p1091
I2
saaI00
asV8725871
p1092
(lp1093
S'._._._._._._._._._._.\n| ._. ._. | ._. ._. |\n| | ._. | | |     | |\n|   |_. |_.         |\n| |_._.   | |_. ._| |\n|_._. |_._|_._. ._._|\n| ._._._._|         |\n| | . ._. |         |\n| | | | | .         |\n|_._|_. | |         |\n|_._._._._|_._._._._|'
p1094
a(lp1095
(dp1096
S'name'
p1097
S'USER'
p1098
sS'ipaddr'
p1099
V127.0.0.1
p1100
sS'session_id'
p1101
I43166576
sS'port'
p1102
I5001
sS'score'
p1103
I270
sS'id'
p1104
V1000
p1105
sS'tank_id'
p1106
I2
sa(dp1107
S'name'
p1108
NsS'ipaddr'
p1109
V127.0.0.1
p1110
sS'session_id'
p1111
I29326085
sS'port'
p1112
I5002
sS'score'
p1113
I120
sS'id'
p1114
NsS'tank_id'
p1115
I2
saasV17180319
p1116
(lp1117
S'._._._._._._._._._._.\n| .               . |\n| |   ._.   ._.   | |\n| |   |       |   | |\n| |               | |\n|_._._._. . ._._._._|\n| ._. | ._| | ._._. |\n|_. |_._. | | | . | |\n| ._| ._._|_._._| | |\n| | . | . | ._._._| |\n|_._|_._|_._._._._._|'
p1118
a(lp1119
(dp1120
S'name'
p1121
S'GUEST4'
p1122
sS'ipaddr'
p1123
V192.168.1.37
p1124
sS'session_id'
p1125
I34140823
sS'port'
p1126
I8800
sS'score'
p1127
I760
sS'deadtime'
p1128
F2147483647.0
sS'id'
p1129
NsS'tank_id'
p1130
I1
sa(dp1131
S'name'
p1132
S'GUEST1'
p1133
sS'ipaddr'
p1134
V192.168.1.38
p1135
sS'session_id'
p1136
I29344559
sS'id'
p1137
NsS'score'
p1138
I920
sS'deadtime'
p1139
F1412307264.3
sS'port'
p1140
I8800
sS'tank_id'
p1141
I1
saaI01
asV40855245
p1142
(lp1143
S'._._._._._._._._._._.\n| . . ._. . ._._. . |\n| | | | . |   ._. | |\n| ._|_._| | ._|   | |\n| ._._._._.   ._._| |\n| . | . ._._._| ._._|\n| | | | | ._. | |   |\n| . . . . ._|   |_. |\n| | | | | | ._._| . |\n| ._| |_. |_._._._| |\n|_._._._._._._._._._|'
p1144
a(lp1145
(dp1146
S'name'
p1147
S'GUEST2'
p1148
sS'ipaddr'
p1149
V192.168.1.38
p1150
sS'session_id'
p1151
I50335261
sS'port'
p1152
I8800
sS'score'
p1153
I180
sS'deadtime'
p1154
F1412311337.02
sS'id'
p1155
NsS'tank_id'
p1156
I4
sa(dp1157
S'name'
p1158
S'GUEST1'
p1159
sS'ipaddr'
p1160
V192.168.1.37
p1161
sS'session_id'
p1162
I77408247
sS'id'
p1163
NsS'score'
p1164
I300
sS'deadtime'
p1165
F2147483647.0
sS'port'
p1166
I8800
sS'tank_id'
p1167
I4
saaI01
asV48313445
p1168
(lp1169
S'._._._._._._._._._._.\n|       |   . ._._. |\n|_.   ._|_._| | . | |\n| . . . |   . | | | |\n| | | | ._._|_._|_. |\n| |_._| .   | .   . |\n|_.   ._|_._. |_._| |\n| . . . . . | |   | |\n| | |_|_| | |_. . ._|\n| |_. | ._| | ._|_. |\n|_._._._._._._._._._|'
p1170
a(lp1171
(dp1172
S'name'
p1173
S'GUEST3'
p1174
sS'ipaddr'
p1175
V192.168.1.37
p1176
sS'session_id'
p1177
I55605782
sS'port'
p1178
I8800
sS'score'
p1179
I600
sS'deadtime'
p1180
F1412312946.13
sS'id'
p1181
NsS'tank_id'
p1182
I2
sa(dp1183
S'name'
p1184
S'GUEST1'
p1185
sS'ipaddr'
p1186
V192.168.1.36
p1187
sS'session_id'
p1188
I33591236
sS'id'
p1189
NsS'score'
p1190
I1040
sS'deadtime'
p1191
F1412312985.95
sS'port'
p1192
I8800
sS'tank_id'
p1193
I1
sa(dp1194
S'name'
p1195
S'GUEST2'
p1196
sS'ipaddr'
p1197
V192.168.1.38
p1198
sS'session_id'
p1199
I50313087
sS'port'
p1200
I8800
sS'score'
p1201
I160
sS'deadtime'
p1202
F2147483647.0
sS'id'
p1203
NsS'tank_id'
p1204
I1
sa(dp1205
S'name'
p1206
S'GUEST3'
p1207
sS'ipaddr'
p1208
V192.168.1.39
p1209
sS'session_id'
p1210
I55901689
sS'id'
p1211
NsS'score'
p1212
I680
sS'deadtime'
p1213
F1412313011.42
sS'port'
p1214
I8800
sS'tank_id'
p1215
I1
saaI01
asV65234232
p1216
(lp1217
S'._._._._._._._._._._.\n| . . |_.   |_._.   |\n|_| | | ._. | ._._. |\n| ._|_._| | ._|_. | |\n| |_._._._._| ._._| |\n| . . . ._._._| ._._|\n| | | | | ._. | | . |\n| | | | ._| . |_._| |\n| | | | | | |_._| . |\n| ._| |_. |_._._._| |\n|_._._._._._._._._._|'
p1218
a(lp1219
(dp1220
S'name'
p1221
S'GUEST2'
p1222
sS'ipaddr'
p1223
V192.168.1.38
p1224
sS'session_id'
p1225
I67364559
sS'id'
p1226
NsS'score'
p1227
I90
sS'deadtime'
p1228
F1412300771.26
sS'port'
p1229
I8800
sS'tank_id'
p1230
I2
sa(dp1231
S'name'
p1232
S'GUEST1'
p1233
sS'ipaddr'
p1234
V192.168.1.39
p1235
sS'session_id'
p1236
I85109863
sS'port'
p1237
I8800
sS'score'
p1238
I405
sS'deadtime'
p1239
F2147483647.0
sS'id'
p1240
NsS'tank_id'
p1241
I2
saaI01
asV58394801
p1242
(lp1243
S'._._._._._._._._._._.\n| . . |_.   |_._.   |\n|_| | | ._. | ._._. |\n| ._|_._| | ._|_. | |\n| |_._._._._| ._._| |\n| . . . ._._._| ._._|\n| | | | | ._. | | . |\n| | | | ._| . |_._| |\n| | | | | | |_._| . |\n| ._| |_. |_._._._| |\n|_._._._._._._._._._|'
p1244
a(lp1245
(dp1246
S'name'
p1247
S'GUEST3'
p1248
sS'ipaddr'
p1249
V127.0.0.1
p1250
sS'session_id'
p1251
I79395159
sS'port'
p1252
I5001
sS'score'
p1253
I0
sS'id'
p1254
NsS'tank_id'
p1255
I2
sa(dp1256
S'name'
p1257
S'USER1'
p1258
sS'ipaddr'
p1259
V127.0.0.1
p1260
sS'session_id'
p1261
I39188800
sS'port'
p1262
I5002
sS'score'
p1263
I0
sS'id'
p1264
V1000
p1265
sS'tank_id'
p1266
I2
saasV62308157
p1267
(lp1268
S'._._._._._._._._._._.\n|_. ._. ._. ._. ._. |\n| ._._._. ._._._. ._|\n|_. ._._._. ._._._. |\n| ._. ._. ._. ._. ._|\n|_.   ._._._._.   ._|\n|_. ._._.   ._._. ._|\n| ._._._.   ._._._. |\n|_.   ._._._._.   ._|\n|   ._._.   ._._.   |\n|_._._._._._._._._._|'
p1269
ag442
asV59646999
p1270
(lp1271
S'._._._._._._._._._._.\n|   .   .   .   |   |\n| ._|_. |_._|_._._. |\n|   |   |   .   |   |\n|_._| ._._._|_._| ._|\n|   |   |   |   .   |\n| ._._._. ._. ._|_._|\n|   |   |   |   .   |\n|_._| ._|_. |_._| ._|\n|   .   |   |   |   |\n|_._|_._._._|_._._._|'
p1272
a(lp1273
(dp1274
S'name'
p1275
NsS'ipaddr'
p1276
V127.0.0.1
p1277
sS'session_id'
p1278
I22159355
sS'port'
p1279
I5001
sS'score'
p1280
I-1
sS'id'
p1281
NsS'tank_id'
p1282
I2
sa(dp1283
S'name'
p1284
NsS'ipaddr'
p1285
V127.0.0.1
p1286
sS'session_id'
p1287
I17409169
sS'port'
p1288
I5002
sS'score'
p1289
I-1
sS'id'
p1290
NsS'tank_id'
p1291
I2
saasV52330239
p1292
(lp1293
S'._._._._._._._._._._.\n|   | | | | | | |   |\n|_.               ._|\n|_.     ._._.     ._|\n|_.   .   |   .   ._|\n|_.   |_.   ._|   ._|\n|_.   |   .   |   ._|\n|_.     ._|_.     ._|\n|_.               ._|\n|   . . . . . . .   |\n|_._|_|_|_|_|_|_|_._|'
p1294
a(lp1295
(dp1296
S'name'
p1297
S'GUEST3'
p1298
sS'ipaddr'
p1299
V192.168.1.37
p1300
sS'session_id'
p1301
I7314955
sS'id'
p1302
NsS'score'
p1303
I800
sS'deadtime'
p1304
F1412309767.74
sS'port'
p1305
I8800
sS'tank_id'
p1306
I2
sa(dp1307
S'name'
p1308
S'GUEST1'
p1309
sS'ipaddr'
p1310
V192.168.1.35
p1311
sS'session_id'
p1312
I27738349
sS'id'
p1313
NsS'score'
p1314
I800
sS'deadtime'
p1315
F1412309779.2
sS'port'
p1316
I8800
sS'tank_id'
p1317
I1
sa(dp1318
S'name'
p1319
S'GUEST2'
p1320
sS'ipaddr'
p1321
V192.168.1.36
p1322
sS'session_id'
p1323
I89462625
sS'port'
p1324
I8800
sS'score'
p1325
I2000
sS'deadtime'
p1326
F1412309751.99
sS'id'
p1327
NsS'tank_id'
p1328
I2
sa(dp1329
S'name'
p1330
S'GUEST3'
p1331
sS'ipaddr'
p1332
V192.168.1.39
p1333
sS'session_id'
p1334
I20643687
sS'port'
p1335
I8800
sS'score'
p1336
I1200
sS'deadtime'
p1337
F2147483647.0
sS'id'
p1338
NsS'tank_id'
p1339
I1
sa(dp1340
S'name'
p1341
S'GUEST4'
p1342
sS'ipaddr'
p1343
V192.168.1.38
p1344
sS'session_id'
p1345
I40373468
sS'id'
p1346
NsS'score'
p1347
I160
sS'deadtime'
p1348
F1412309748.48
sS'port'
p1349
I8800
sS'tank_id'
p1350
I1
saaI01
asV77250129
p1351
(lp1352
S'._._._._._._._._._._.\n| .               . |\n| |   ._.   ._.   | |\n| |   |       |   | |\n| |               | |\n|_._._._. . ._._._._|\n| ._. | ._| | ._._. |\n|_. |_._. | | | . | |\n| ._| ._._|_._._| | |\n| | . | . | ._._._| |\n|_._|_._|_._._._._._|'
p1353
a(lp1354
(dp1355
S'name'
p1356
S'GUEST2'
p1357
sS'ipaddr'
p1358
V127.0.0.1
p1359
sS'session_id'
p1360
I27881909
sS'port'
p1361
I5002
sS'score'
p1362
I-1
sS'id'
p1363
NsS'tank_id'
p1364
I2
sa(dp1365
S'name'
p1366
S'GUEST1'
p1367
sS'ipaddr'
p1368
V127.0.0.1
p1369
sS'session_id'
p1370
I53831882
sS'port'
p1371
I5001
sS'score'
p1372
I-1
sS'id'
p1373
NsS'tank_id'
p1374
I2
saaI00
asV11123649
p1375
(lp1376
S'._._._._._._._._._._.\n|                   |\n| ._. ._.   ._. ._. |\n| | | | |   | | | | |\n|                   |\n|                   |\n| ._._._._._._._._. |\n|     |       |     |\n|     |   .   |     |\n|         |         |\n|_._._._._|_._._._._|'
p1377
a(lp1378
(dp1379
S'name'
p1380
S'GUEST3'
p1381
sS'ipaddr'
p1382
V192.168.1.35
p1383
sS'session_id'
p1384
I49010769
sS'id'
p1385
NsS'score'
p1386
I280
sS'deadtime'
p1387
F1412311617.92
sS'port'
p1388
I8800
sS'tank_id'
p1389
I1
sa(dp1390
S'name'
p1391
S'GUEST1'
p1392
sS'ipaddr'
p1393
V192.168.1.38
p1394
sS'session_id'
p1395
I10937610
sS'port'
p1396
I8800
sS'score'
p1397
I220
sS'deadtime'
p1398
F2147483647.0
sS'id'
p1399
NsS'tank_id'
p1400
I1
sa(dp1401
S'name'
p1402
S'GUEST2'
p1403
sS'ipaddr'
p1404
V192.168.1.37
p1405
sS'session_id'
p1406
I38448941
sS'port'
p1407
I8800
sS'score'
p1408
I1300
sS'deadtime'
p1409
F1412311628.23
sS'id'
p1410
NsS'tank_id'
p1411
I0
saaI01
asV71587400
p1412
(lp1413
S'._._._._._._._._._._.\n| ._. ._. | ._. ._. |\n| | ._. | | |     | |\n|   |_. |_.         |\n| |_._.   | |_. ._| |\n|_._. |_._|_._. ._._|\n| ._._._._|         |\n| | . ._. |         |\n| | | | | .         |\n|_._|_. | |         |\n|_._._._._|_._._._._|'
p1414
a(lp1415
(dp1416
S'name'
p1417
S'GUEST2'
p1418
sS'ipaddr'
p1419
V127.0.0.1
p1420
sS'session_id'
p1421
I56689522
sS'port'
p1422
I5001
sS'score'
p1423
I0
sS'id'
p1424
NsS'tank_id'
p1425
I2
sa(dp1426
S'name'
p1427
S'GUEST1'
p1428
sS'ipaddr'
p1429
V127.0.0.1
p1430
sS'session_id'
p1431
I43271184
sS'port'
p1432
I5002
sS'score'
p1433
I465
sS'id'
p1434
NsS'tank_id'
p1435
I2
saasV99847575
p1436
(lp1437
S'._._._._._._._._._._.\n| . . . .   . . . . |\n| | | | |   | | | | |\n| | | | |   | | | | |\n| ._._._.   ._._._. |\n|_._. .       . ._._|\n|   | | .   . | |   |\n|   | | |   | | |   |\n|   | | |_._| | |   |\n|   | |       | |   |\n|_._._|_._._._|_._._|'
p1438
a(lp1439
(dp1440
S'name'
p1441
S'GUEST2'
p1442
sS'ipaddr'
p1443
V192.168.1.36
p1444
sS'session_id'
p1445
I97930318
sS'port'
p1446
I8800
sS'score'
p1447
I375
sS'deadtime'
p1448
F1412301077.04
sS'id'
p1449
NsS'tank_id'
p1450
I2
sa(dp1451
S'name'
p1452
S'GUEST1'
p1453
sS'ipaddr'
p1454
V192.168.1.37
p1455
sS'session_id'
p1456
I44439148
sS'id'
p1457
NsS'score'
p1458
I405
sS'deadtime'
p1459
F2147483647.0
sS'port'
p1460
I8800
sS'tank_id'
p1461
I2
saaI01
asV88222574
p1462
(lp1463
S'._._._._._._._._._._.\n|_. ._. ._. ._. ._. |\n| ._._._. ._._._. ._|\n|_. ._._._. ._._._. |\n| ._. ._. ._. ._. ._|\n|_.   ._._._._.   ._|\n|_. ._._.   ._._. ._|\n| ._._._.   ._._._. |\n|_.   ._._._._.   ._|\n|   ._._.   ._._.   |\n|_._._._._._._._._._|'
p1464
a(lp1465
(dp1466
S'name'
p1467
S'GUEST2'
p1468
sS'ipaddr'
p1469
V127.0.0.1
p1470
sS'session_id'
p1471
I64095378
sS'port'
p1472
I5001
sS'score'
p1473
I-1
sS'id'
p1474
NsS'tank_id'
p1475
I2
sa(dp1476
S'name'
p1477
S'GUEST1'
p1478
sS'ipaddr'
p1479
V127.0.0.1
p1480
sS'session_id'
p1481
I2489192
sS'port'
p1482
I5002
sS'score'
p1483
I-1
sS'id'
p1484
NsS'tank_id'
p1485
I2
saaI00
asV83606549
p1486
(lp1487
S'._._._._._._._._._._.\n|   |_. ._._. ._|   |\n|_.   |_.   ._|   ._|\n| |_.   |   |   ._| |\n| . |   ._._.   | . |\n| |               | |\n| | .   ._._.   . | |\n| ._|   .   .   |_. |\n|_|   ._|   |_.   |_|\n|   ._| ._._. |_.   |\n|_._|_._._._._._|_._|'
p1488
a(lp1489
(dp1490
S'name'
p1491
S'GUEST5'
p1492
sS'ipaddr'
p1493
V192.168.1.36
p1494
sS'session_id'
p1495
I31737232
sS'port'
p1496
I8800
sS'score'
p1497
I2840
sS'deadtime'
p1498
F2147483647.0
sS'id'
p1499
NsS'tank_id'
p1500
I2
sa(dp1501
S'name'
p1502
S'GUEST1'
p1503
sS'ipaddr'
p1504
V192.168.1.38
p1505
sS'session_id'
p1506
I69265282
sS'port'
p1507
I8800
sS'score'
p1508
I520
sS'deadtime'
p1509
F1412310010.16
sS'id'
p1510
NsS'tank_id'
p1511
I2
sa(dp1512
S'name'
p1513
S'GUEST2'
p1514
sS'ipaddr'
p1515
V192.168.1.39
p1516
sS'session_id'
p1517
I34693222
sS'id'
p1518
NsS'score'
p1519
I400
sS'deadtime'
p1520
F1412310070.12
sS'port'
p1521
I8800
sS'tank_id'
p1522
I2
sa(dp1523
S'name'
p1524
S'GUEST3'
p1525
sS'ipaddr'
p1526
V192.168.1.35
p1527
sS'session_id'
p1528
I64517563
sS'port'
p1529
I8800
sS'score'
p1530
I400
sS'deadtime'
p1531
F1412310056.21
sS'id'
p1532
NsS'tank_id'
p1533
I1
sa(dp1534
S'name'
p1535
S'GUEST4'
p1536
sS'ipaddr'
p1537
V192.168.1.37
p1538
sS'session_id'
p1539
I54689533
sS'id'
p1540
NsS'score'
p1541
I760
sS'deadtime'
p1542
F1412310035.72
sS'port'
p1543
I8800
sS'tank_id'
p1544
I1
saaI01
asV71610834
p1545
(lp1546
S'._._._._._._._._._._.\n|   | | | | | | |   |\n|_.               ._|\n|_.     ._._.     ._|\n|_.   .   |   .   ._|\n|_.   |_.   ._|   ._|\n|_.   |   .   |   ._|\n|_.     ._|_.     ._|\n|_.               ._|\n|   . . . . . . .   |\n|_._|_|_|_|_|_|_|_._|'
p1547
a(lp1548
(dp1549
S'name'
p1550
S'GUEST2'
p1551
sS'ipaddr'
p1552
V127.0.0.1
p1553
sS'session_id'
p1554
I62941465
sS'id'
p1555
NsS'score'
p1556
I405
sS'deadtime'
p1557
F2147483647.0
sS'port'
p1558
I5001
sS'tank_id'
p1559
I2
sa(dp1560
S'name'
p1561
S'GUEST1'
p1562
sS'ipaddr'
p1563
V127.0.0.1
p1564
sS'session_id'
p1565
I16922182
sS'port'
p1566
I5002
sS'score'
p1567
I0
sS'deadtime'
p1568
F1412305174.71
sS'id'
p1569
NsS'tank_id'
p1570
I2
saaI01
asV16498905
p1571
(lp1572
S'._._._._._._._._._._.\n| ._._._.   ._._._. |\n| | ._._.   ._._. | |\n| | | ._.   ._. | | |\n| | | |       | | | |\n|                   |\n| . . .       . . . |\n| | | |_.   ._| | | |\n| | |_._.   ._._| | |\n| |_._._.   ._._._| |\n|_._._._._._._._._._|'
p1573
a(lp1574
(dp1575
S'name'
p1576
S'GUEST3'
p1577
sS'ipaddr'
p1578
V192.168.1.39
p1579
sS'session_id'
p1580
I49630370
sS'port'
p1581
I8800
sS'score'
p1582
I315
sS'deadtime'
p1583
F2147483647.0
sS'id'
p1584
NsS'tank_id'
p1585
I2
sa(dp1586
S'name'
p1587
S'GUEST1'
p1588
sS'ipaddr'
p1589
V192.168.1.38
p1590
sS'session_id'
p1591
I2763465
sS'id'
p1592
NsS'score'
p1593
I0
sS'deadtime'
p1594
F1412308435.51
sS'port'
p1595
I8800
sS'tank_id'
p1596
I2
saaI01
asV18887287
p1597
(lp1598
S'._._._._._._._._._._.\n| ._._._.   ._._._. |\n| | ._.       ._. | |\n| | |_.       ._| | |\n| |_._._.   ._._._| |\n|                   |\n| ._._._.   ._._._. |\n| |     |   |     | |\n| |   ._|   |_.   | |\n| |_._._.   ._._._| |\n|_._._._._._._._._._|'
p1599
a(lp1600
(dp1601
S'name'
p1602
S'GUEST2'
p1603
sS'ipaddr'
p1604
V192.168.1.36
p1605
sS'session_id'
p1606
I5321107
sS'id'
p1607
NsS'score'
p1608
I300
sS'deadtime'
p1609
F1412309598.88
sS'port'
p1610
I8800
sS'tank_id'
p1611
I2
sa(dp1612
S'name'
p1613
S'GUEST1'
p1614
sS'ipaddr'
p1615
V192.168.1.35
p1616
sS'session_id'
p1617
I37241025
sS'id'
p1618
NsS'score'
p1619
I30
sS'deadtime'
p1620
F2147483647.0
sS'port'
p1621
I8800
sS'tank_id'
p1622
I1
sa(dp1623
S'name'
p1624
S'GUEST2'
p1625
sS'ipaddr'
p1626
V192.168.1.37
p1627
sS'session_id'
p1628
I85586307
sS'port'
p1629
I8800
sS'score'
p1630
I435
sS'deadtime'
p1631
F1412309604.66
sS'id'
p1632
NsS'tank_id'
p1633
I2
saaI01
asV69071652
p1634
(lp1635
S'._._._._._._._._._._.\n|   .   .   .   |   |\n| ._|_. |_._|_._._. |\n|   |   |   .   |   |\n|_._| ._._._|_._| ._|\n|   |   |   |   .   |\n| ._._._. ._. ._|_._|\n|   |   |   |   .   |\n|_._| ._|_. |_._| ._|\n|   .   |   |   |   |\n|_._|_._._._|_._._._|'
p1636
a(lp1637
(dp1638
S'name'
p1639
S'USER'
p1640
sS'ipaddr'
p1641
V127.0.0.1
p1642
sS'session_id'
p1643
I53965763
sS'port'
p1644
I5001
sS'score'
p1645
I0
sS'id'
p1646
V1001
p1647
sS'tank_id'
p1648
I2
sa(dp1649
S'name'
p1650
S'USER'
p1651
sS'ipaddr'
p1652
V127.0.0.1
p1653
sS'session_id'
p1654
I87856346
sS'port'
p1655
I5002
sS'score'
p1656
I0
sS'id'
p1657
V1000
p1658
sS'tank_id'
p1659
I2
saasV99121667
p1660
(lp1661
S'._._._._._._._._._._.\n|_. ._. ._. ._. ._. |\n| ._._._. ._._._. ._|\n|_. ._._._. ._._._. |\n| ._. ._. ._. ._. ._|\n|_.   ._._._._.   ._|\n|_. ._._.   ._._. ._|\n| ._._._.   ._._._. |\n|_.   ._._._._.   ._|\n|   ._._.   ._._.   |\n|_._._._._._._._._._|'
p1662
a(lp1663
(dp1664
S'name'
p1665
NsS'ipaddr'
p1666
V127.0.0.1
p1667
sS'session_id'
p1668
I27526036
sS'port'
p1669
I5001
sS'score'
p1670
I-1
sS'id'
p1671
NsS'tank_id'
p1672
I2
sa(dp1673
S'name'
p1674
NsS'ipaddr'
p1675
V127.0.0.1
p1676
sS'session_id'
p1677
I71427959
sS'port'
p1678
I5002
sS'score'
p1679
I-1
sS'id'
p1680
NsS'tank_id'
p1681
I2
saasV7723009
p1682
(lp1683
S'._._._._._._._._._._.\n|       |   . ._._. |\n|_.   ._|_._| | . | |\n| . . . |   . | | | |\n| | | | ._._|_._|_. |\n| |_._| .   | .   . |\n|_.   ._|_._. |_._| |\n| . . . . . | |   | |\n| | |_|_| | |_. . ._|\n| |_. | ._| | ._|_. |\n|_._._._._._._._._._|'
p1684
a(lp1685
(dp1686
S'name'
p1687
S'GUEST2'
p1688
sS'ipaddr'
p1689
V127.0.0.1
p1690
sS'session_id'
p1691
I47623870
sS'id'
p1692
NsS'score'
p1693
I120
sS'deadtime'
p1694
F2147483647.0
sS'port'
p1695
I5001
sS'tank_id'
p1696
I2
sa(dp1697
S'name'
p1698
S'GUEST1'
p1699
sS'ipaddr'
p1700
V127.0.0.1
p1701
sS'session_id'
p1702
I41909843
sS'port'
p1703
I5002
sS'score'
p1704
I0
sS'deadtime'
p1705
F2147483647.0
sS'id'
p1706
NsS'tank_id'
p1707
I2
saaI01
asV52801387
p1708
(lp1709
S'._._._._._._._._._._.\n|   |  _._  |  _._  |\n|   |       |       |\n|   |       |       | \n|   |_.   ._|_.   ._|\n|   |   .   |   .   |\n|_.   ._|_.   ._|   |\n|       |       |   |\n|       |       |   |\n|  _._  |  _._  |   |\n|_._._._|_._._._|_._|'
p1710
a(lp1711
(dp1712
S'name'
p1713
S'GUEST2'
p1714
sS'ipaddr'
p1715
V127.0.0.1
p1716
sS'session_id'
p1717
I29183129
sS'port'
p1718
I5001
sS'score'
p1719
I-1
sS'id'
p1720
NsS'tank_id'
p1721
I2
sa(dp1722
S'name'
p1723
S'USER'
p1724
sS'ipaddr'
p1725
V127.0.0.1
p1726
sS'session_id'
p1727
I32587635
sS'port'
p1728
I5003
sS'score'
p1729
I-1
sS'id'
p1730
V1001
p1731
sS'tank_id'
p1732
I2
sa(dp1733
S'name'
p1734
S'USER'
p1735
sS'ipaddr'
p1736
V127.0.0.1
p1737
sS'session_id'
p1738
I47511629
sS'port'
p1739
I5002
sS'score'
p1740
I-1
sS'id'
p1741
V1000
p1742
sS'tank_id'
p1743
I2
saasV70577098
p1744
(lp1745
S'._._._._._._._._._._.\n| . | ._._._._. | . |\n| | ._._._._._._. | |\n| | ._._. . ._._. | |\n|_| |   . | .   | |_|\n| ._| ._| | |_. |_. |\n|_._._._. | ._._._._|\n|_. . |  ._.  | ._. |\n| ._| |  ._.  | | | |\n| | . |_.   ._|     |\n|_._|_._._._._._|_|_|'
p1746
a(lp1747
(dp1748
S'name'
p1749
S'GUEST3'
p1750
sS'ipaddr'
p1751
V192.168.1.39
p1752
sS'session_id'
p1753
I35099150
sS'id'
p1754
NsS'score'
p1755
I200
sS'deadtime'
p1756
F2147483647.0
sS'port'
p1757
I8800
sS'tank_id'
p1758
I0
sa(dp1759
S'name'
p1760
S'GUEST1'
p1761
sS'ipaddr'
p1762
V192.168.1.38
p1763
sS'session_id'
p1764
I69803352
sS'port'
p1765
I8800
sS'score'
p1766
I0
sS'deadtime'
p1767
F1412310776.89
sS'id'
p1768
NsS'tank_id'
p1769
I0
sa(dp1770
S'name'
p1771
S'GUEST2'
p1772
sS'ipaddr'
p1773
V192.168.1.37
p1774
sS'session_id'
p1775
I94423639
sS'id'
p1776
NsS'score'
p1777
I200
sS'deadtime'
p1778
F1412310776.27
sS'port'
p1779
I8800
sS'tank_id'
p1780
I0
sa(dp1781
S'name'
p1782
S'GUEST3'
p1783
sS'ipaddr'
p1784
V192.168.1.36
p1785
sS'session_id'
p1786
I24302754
sS'id'
p1787
NsS'score'
p1788
I340
sS'deadtime'
p1789
F2147483647.0
sS'port'
p1790
I8800
sS'tank_id'
p1791
I0
sa(dp1792
S'name'
p1793
S'GUEST4'
p1794
sS'ipaddr'
p1795
V192.168.1.35
p1796
sS'session_id'
p1797
I4261002
sS'port'
p1798
I8800
sS'score'
p1799
I740
sS'deadtime'
p1800
F2147483647.0
sS'id'
p1801
NsS'tank_id'
p1802
I0
saaI01
asV66238633
p1803
(lp1804
S'._._._._._._._._._._.\n| .               . |\n| |   ._.   ._.   | |\n| |   |       |   | |\n| |               | |\n|_._._._. . ._._._._|\n| ._. | ._| | ._._. |\n|_. |_._. | | | . | |\n| ._| ._._|_._._| | |\n| | . | . | ._._._| |\n|_._|_._|_._._._._._|'
p1805
a(lp1806
(dp1807
S'name'
p1808
S'GUEST2'
p1809
sS'ipaddr'
p1810
V192.168.1.38
p1811
sS'session_id'
p1812
I94720902
sS'port'
p1813
I8800
sS'score'
p1814
I180
sS'deadtime'
p1815
F2147483647.0
sS'id'
p1816
NsS'tank_id'
p1817
I2
sa(dp1818
S'name'
p1819
S'GUEST1'
p1820
sS'ipaddr'
p1821
V192.168.1.39
p1822
sS'session_id'
p1823
I2809773
sS'id'
p1824
NsS'score'
p1825
I315
sS'deadtime'
p1826
F1412306629.53
sS'port'
p1827
I8800
sS'tank_id'
p1828
I2
saaI01
asV56794279
p1829
(lp1830
S'._._._._._._._._._._.\n| . . . .   . . . . |\n| | | | |   | | | | |\n| | | | |   | | | | |\n| ._._._.   ._._._. |\n|_._. .       . ._._|\n|   | | .   . | |   |\n|   | | |   | | |   |\n|   | | |_._| | |   |\n|   | |       | |   |\n|_._._|_._._._|_._._|'
p1831
a(lp1832
(dp1833
S'name'
p1834
S'GUEST3'
p1835
sS'ipaddr'
p1836
V192.168.1.36
p1837
sS'session_id'
p1838
I33901177
sS'port'
p1839
I8800
sS'score'
p1840
I680
sS'deadtime'
p1841
F2147483647.0
sS'id'
p1842
NsS'tank_id'
p1843
I2
sa(dp1844
S'name'
p1845
S'GUEST1'
p1846
sS'ipaddr'
p1847
V192.168.1.35
p1848
sS'session_id'
p1849
I40923059
sS'id'
p1850
NsS'score'
p1851
I140
sS'deadtime'
p1852
F1412309511.04
sS'port'
p1853
I8800
sS'tank_id'
p1854
I0
saaI01
asV87083258
p1855
(lp1856
S'._._._._._._._._._._.\n| ._._._._.     ._. |\n| |   | |     . | | |\n| |_. ._.   ._|_|   |\n| |_. |     | |   . |\n| |     .   |   ._| |\n|     . |     ._| . |\n|   ._|_|   ._| . | |\n| . | |   ._| ._| | |\n| |_|   ._| ._._._| |\n|_._._._._._._._._._|'
p1857
a(lp1858
(dp1859
S'name'
p1860
S'USER'
p1861
sS'ipaddr'
p1862
V192.168.1.37
p1863
sS'session_id'
p1864
I94859874
sS'port'
p1865
I8800
sS'score'
p1866
I1760
sS'id'
p1867
V1001
p1868
sS'tank_id'
p1869
I3
sa(dp1870
S'name'
p1871
NsS'ipaddr'
p1872
V192.168.1.38
p1873
sS'session_id'
p1874
I41093446
sS'port'
p1875
I8800
sS'score'
p1876
I480
sS'id'
p1877
NsS'tank_id'
p1878
I2
sa(dp1879
S'name'
p1880
NsS'ipaddr'
p1881
V192.168.1.35
p1882
sS'session_id'
p1883
I49085014
sS'port'
p1884
I8800
sS'score'
p1885
I200
sS'id'
p1886
NsS'tank_id'
p1887
I1
saasV4618359
p1888
(lp1889
S'._._._._._._._._._._.\n|   |  _._  |  _._  |\n|   |       |       |\n|   |       |       | \n|   |_.   ._|_.   ._|\n|   |   .   |   .   |\n|_.   ._|_.   ._|   |\n|       |       |   |\n|       |       |   |\n|  _._  |  _._  |   |\n|_._._._|_._._._|_._|'
p1890
a(lp1891
(dp1892
S'name'
p1893
S'GUEST2'
p1894
sS'ipaddr'
p1895
V127.0.0.1
p1896
sS'session_id'
p1897
I34997432
sS'port'
p1898
I5001
sS'score'
p1899
I0
sS'deadtime'
p1900
F1412308670.98
sS'id'
p1901
NsS'tank_id'
p1902
I2
sa(dp1903
S'name'
p1904
S'GUEST1'
p1905
sS'ipaddr'
p1906
V127.0.0.1
p1907
sS'session_id'
p1908
I51102069
sS'id'
p1909
NsS'score'
p1910
I495
sS'deadtime'
p1911
F2147483647.0
sS'port'
p1912
I5003
sS'tank_id'
p1913
I2
sa(dp1914
S'name'
p1915
S'GUEST2'
p1916
sS'ipaddr'
p1917
V127.0.0.1
p1918
sS'session_id'
p1919
I39159438
sS'port'
p1920
I5002
sS'score'
p1921
I0
sS'deadtime'
p1922
F2147483647.0
sS'id'
p1923
NsS'tank_id'
p1924
I2
saaI01
asV22431771
p1925
(lp1926
S'._._._._._._._._._._.\n|   |_. ._._. ._|   |\n|_.   |_.   ._|   ._|\n| |_.   |   |   ._| |\n| . |   ._._.   | . |\n| |               | |\n| | .   ._._.   . | |\n| ._|   .   .   |_. |\n|_|   ._|   |_.   |_|\n|   ._| ._._. |_.   |\n|_._|_._._._._._|_._|'
p1927
a(lp1928
(dp1929
S'name'
p1930
NsS'ipaddr'
p1931
V127.0.0.1
p1932
sS'session_id'
p1933
I70355353
sS'port'
p1934
I5001
sS'score'
p1935
I0
sS'id'
p1936
NsS'tank_id'
p1937
I2
sa(dp1938
S'name'
p1939
NsS'ipaddr'
p1940
V127.0.0.1
p1941
sS'session_id'
p1942
I1825773
sS'port'
p1943
I5002
sS'score'
p1944
I0
sS'id'
p1945
NsS'tank_id'
p1946
I2
sa(dp1947
S'name'
p1948
NsS'ipaddr'
p1949
V127.0.0.1
p1950
sS'session_id'
p1951
I44129651
sS'port'
p1952
I5003
sS'score'
p1953
I405
sS'id'
p1954
NsS'tank_id'
p1955
I2
saasV41885602
p1956
(lp1957
S'._._._._._._._._._._.\n| ._._._.   ._._._. |\n| | ._._.   ._._. | |\n| | | ._.   ._. | | |\n| | | |       | | | |\n|                   |\n| . . .       . . . |\n| | | |_.   ._| | | |\n| | |_._.   ._._| | |\n| |_._._.   ._._._| |\n|_._._._._._._._._._|'
p1958
a(lp1959
(dp1960
S'name'
p1961
S'GUEST2'
p1962
sS'ipaddr'
p1963
V127.0.0.1
p1964
sS'session_id'
p1965
I1877368
sS'port'
p1966
I5001
sS'score'
p1967
I-1
sS'id'
p1968
NsS'tank_id'
p1969
I2
sa(dp1970
S'name'
p1971
S'GUEST1'
p1972
sS'ipaddr'
p1973
V127.0.0.1
p1974
sS'session_id'
p1975
I53592704
sS'port'
p1976
I5002
sS'score'
p1977
I-1
sS'id'
p1978
NsS'tank_id'
p1979
I2
saaI00
asV11632381
p1980
(lp1981
S'._._._._._._._._._._.\n| . | ._._._._. | . |\n| | ._._._._._._. | |\n| | ._._. . ._._. | |\n|_| |   . | .   | |_|\n| ._| ._| | |_. |_. |\n|_._._._. | ._._._._|\n|_. . |  ._.  | ._. |\n| ._| |  ._.  | | | |\n| | . |_.   ._|     |\n|_._|_._._._._._|_|_|'
p1982
a(lp1983
(dp1984
S'name'
p1985
S'GUEST5'
p1986
sS'ipaddr'
p1987
V192.168.1.37
p1988
sS'session_id'
p1989
I73965630
sS'id'
p1990
NsS'score'
p1991
I0
sS'deadtime'
p1992
F1412311877.42
sS'port'
p1993
I8800
sS'tank_id'
p1994
I2
sa(dp1995
S'name'
p1996
S'GUEST1'
p1997
sS'ipaddr'
p1998
V192.168.1.39
p1999
sS'session_id'
p2000
I30411349
sS'port'
p2001
I8800
sS'score'
p2002
I0
sS'deadtime'
p2003
F2147483647.0
sS'id'
p2004
NsS'tank_id'
p2005
I3
sa(dp2006
S'name'
p2007
S'GUEST2'
p2008
sS'ipaddr'
p2009
V192.168.1.35
p2010
sS'session_id'
p2011
I30871640
sS'port'
p2012
I8800
sS'score'
p2013
I0
sS'deadtime'
p2014
F1412311877.21
sS'id'
p2015
NsS'tank_id'
p2016
I1
saaI01
asV71120044
p2017
(lp2018
S'._._._._._._._._._._.\n| . . ._.   |     . |\n|_| |       | ._._| |\n| ._| ._.   ._|   | |\n| ._._._._._| . ._| |\n| . | ._._._._| . | |\n| | | |   .     | . |\n| | | |   |   ._. | |\n| | | |   |   ._|   |\n| ._| |_. |_._._._. |\n|_._._._._._._._._._|'
p2019
a(lp2020
(dp2021
S'name'
p2022
NsS'ipaddr'
p2023
V127.0.0.1
p2024
sS'session_id'
p2025
I82963956
sS'port'
p2026
I5001
sS'score'
p2027
I0
sS'id'
p2028
NsS'tank_id'
p2029
I2
sa(dp2030
S'name'
p2031
NsS'ipaddr'
p2032
V127.0.0.1
p2033
sS'session_id'
p2034
I51277323
sS'port'
p2035
I5002
sS'score'
p2036
I0
sS'id'
p2037
NsS'tank_id'
p2038
I2
saasV1351226
p2039
(lp2040
S'._._._._._._._._._._.\n|   |_. ._._. ._|   |\n|_.   |_.   ._|   ._|\n| |_.   |   |   ._| |\n| . |   ._._.   | . |\n| |               | |\n| | .   ._._.   . | |\n| ._|   .   .   |_. |\n|_|   ._|   |_.   |_|\n|   ._| ._._. |_.   |\n|_._|_._._._._._|_._|'
p2041
a(lp2042
(dp2043
S'name'
p2044
S'GUEST3'
p2045
sS'ipaddr'
p2046
V127.0.0.1
p2047
sS'session_id'
p2048
I48764914
sS'port'
p2049
I5001
sS'score'
p2050
I-1
sS'id'
p2051
NsS'tank_id'
p2052
I2
sa(dp2053
S'name'
p2054
S'GUEST1'
p2055
sS'ipaddr'
p2056
V127.0.0.1
p2057
sS'session_id'
p2058
I48474591
sS'port'
p2059
I5003
sS'score'
p2060
I-1
sS'id'
p2061
NsS'tank_id'
p2062
I2
sa(dp2063
S'name'
p2064
S'GUEST2'
p2065
sS'ipaddr'
p2066
V127.0.0.1
p2067
sS'session_id'
p2068
I24122650
sS'port'
p2069
I5002
sS'score'
p2070
I-1
sS'id'
p2071
NsS'tank_id'
p2072
I2
saaI00
asV51654612
p2073
(lp2074
S'._._._._._._._._._._.\n| ._._._.   ._._._. |\n| | ._.       ._. | |\n| | |_.       ._| | |\n| |_._._.   ._._._| |\n|                   |\n| ._._._.   ._._._. |\n| |     |   |     | |\n| |   ._|   |_.   | |\n| |_._._.   ._._._| |\n|_._._._._._._._._._|'
p2075
a(lp2076
(dp2077
S'name'
p2078
S'GUEST2'
p2079
sS'ipaddr'
p2080
V127.0.0.1
p2081
sS'session_id'
p2082
I43445548
sS'port'
p2083
I5001
sS'score'
p2084
I-1
sS'id'
p2085
NsS'tank_id'
p2086
I2
sa(dp2087
S'name'
p2088
S'GUEST1'
p2089
sS'ipaddr'
p2090
V127.0.0.1
p2091
sS'session_id'
p2092
I15481991
sS'port'
p2093
I5002
sS'score'
p2094
I-1
sS'id'
p2095
NsS'tank_id'
p2096
I2
saaI00
asV7225380
p2097
(lp2098
S'._._._._._._._._._._.\n| . | ._._._._. | . |\n| | ._._._._._._. | |\n| | ._._. . ._._. | |\n|_| |   . | .   | |_|\n| ._| ._| | |_. |_. |\n|_._._._. | ._._._._|\n|_. . |  ._.  | ._. |\n| ._| |  ._.  | | | |\n| | . |_.   ._|     |\n|_._|_._._._._._|_|_|'
p2099
a(lp2100
(dp2101
S'name'
p2102
NsS'ipaddr'
p2103
V127.0.0.1
p2104
sS'session_id'
p2105
I35189938
sS'port'
p2106
I5001
sS'score'
p2107
I-1
sS'id'
p2108
NsS'tank_id'
p2109
I2
sa(dp2110
S'name'
p2111
NsS'ipaddr'
p2112
V127.0.0.1
p2113
sS'session_id'
p2114
I65603867
sS'port'
p2115
I5002
sS'score'
p2116
I-1
sS'id'
p2117
NsS'tank_id'
p2118
I2
saasV74416424
p2119
(lp2120
S'._._._._._._._._._._.\n|   ._._.   ._._.   |\n|     |     |_. |   |\n|     |     |   |   |\n|     |     |   |   |\n|                   |\n|   ._. .   . ._.   |\n|   | | |   |_|     |\n|   | | |   |_.     |\n|   | |_|   | |_.   |\n|_._._._._._._._._._|'
p2121
a(lp2122
(dp2123
S'name'
p2124
NsS'ipaddr'
p2125
V127.0.0.1
p2126
sS'session_id'
p2127
I97698682
sS'port'
p2128
I5002
sS'score'
p2129
I225
sS'id'
p2130
NsS'tank_id'
p2131
I2
sa(dp2132
S'name'
p2133
S'USER'
p2134
sS'ipaddr'
p2135
V127.0.0.1
p2136
sS'session_id'
p2137
I11268628
sS'port'
p2138
I5001
sS'score'
p2139
I0
sS'id'
p2140
V1000
p2141
sS'tank_id'
p2142
I2
saasV21580100
p2143
(lp2144
S'._._._._._._._._._._.\n|   |_. ._._. ._|   |\n|_.   |_.   ._|   ._|\n| |_.   |   |   ._| |\n| . |   ._._.   | . |\n| |               | |\n| | .   ._._.   . | |\n| ._|   .   .   |_. |\n|_|   ._|   |_.   |_|\n|   ._| ._._. |_.   |\n|_._|_._._._._._|_._|'
p2145
a(lp2146
(dp2147
S'name'
p2148
NsS'ipaddr'
p2149
V127.0.0.1
p2150
sS'session_id'
p2151
I31411490
sS'port'
p2152
I5001
sS'score'
p2153
I-1
sS'id'
p2154
NsS'tank_id'
p2155
I2
sa(dp2156
S'name'
p2157
NsS'ipaddr'
p2158
V127.0.0.1
p2159
sS'session_id'
p2160
I41874829
sS'port'
p2161
I5002
sS'score'
p2162
I-1
sS'id'
p2163
NsS'tank_id'
p2164
I2
saasV14747409
p2165
(lp2166
S'._._._._._._._._._._.\n| . | ._._._._. | . |\n| | ._._._._._._. | |\n| | ._._. . ._._. | |\n|_| |   . | .   | |_|\n| ._| ._| | |_. |_. |\n|_._._._. | ._._._._|\n|_. . |  ._.  | ._. |\n| ._| |  ._.  | | | |\n| | . |_.   ._|     |\n|_._|_._._._._._|_|_|'
p2167
a(lp2168
(dp2169
S'name'
p2170
S'GUEST2'
p2171
sS'ipaddr'
p2172
V192.168.1.38
p2173
sS'session_id'
p2174
I38696802
sS'id'
p2175
NsS'score'
p2176
I0
sS'deadtime'
p2177
F2147483647.0
sS'port'
p2178
I8800
sS'tank_id'
p2179
I1
sa(dp2180
S'name'
p2181
S'GUEST1'
p2182
sS'ipaddr'
p2183
V192.168.1.37
p2184
sS'session_id'
p2185
I1094957
sS'port'
p2186
I8800
sS'score'
p2187
I0
sS'deadtime'
p2188
F1412308485.3
sS'id'
p2189
NsS'tank_id'
p2190
I1
saaI01
asV8352213
p2191
(lp2192
S'._._._._._._._._._._.\n| . . ._. . ._._. . |\n| | | | . |   ._. | |\n| ._|_._| | ._|   | |\n| ._._._._.   ._._| |\n| . | . ._._._| ._._|\n| | | | | ._. | |   |\n| . . . . ._|   |_. |\n| | | | | | ._._| . |\n| ._| |_. |_._._._| |\n|_._._._._._._._._._|'
p2193
a(lp2194
(dp2195
S'name'
p2196
NsS'ipaddr'
p2197
V127.0.0.1
p2198
sS'session_id'
p2199
I40371810
sS'port'
p2200
I5001
sS'score'
p2201
I-1
sS'id'
p2202
NsS'tank_id'
p2203
I2
sa(dp2204
S'name'
p2205
NsS'ipaddr'
p2206
V127.0.0.1
p2207
sS'session_id'
p2208
I17120194
sS'port'
p2209
I5002
sS'score'
p2210
I-1
sS'id'
p2211
NsS'tank_id'
p2212
I2
saasV56607680
p2213
(lp2214
S'._._._._._._._._._._.\n|   ._._.   ._._.   |\n|     |     |_. |   |\n|     |     |   |   |\n|     |     |   |   |\n|                   |\n|   ._. .   . ._.   |\n|   | | |   |_|     |\n|   | | |   |_.     |\n|   | |_|   | |_.   |\n|_._._._._._._._._._|'
p2215
a(lp2216
(dp2217
S'name'
p2218
NsS'ipaddr'
p2219
V127.0.0.1
p2220
sS'session_id'
p2221
I15794897
sS'port'
p2222
I5003
sS'score'
p2223
I-1
sS'id'
p2224
NsS'tank_id'
p2225
I2
sa(dp2226
S'name'
p2227
NsS'ipaddr'
p2228
V127.0.0.1
p2229
sS'session_id'
p2230
I50702180
sS'port'
p2231
I5001
sS'score'
p2232
I0
sS'id'
p2233
NsS'tank_id'
p2234
I2
sa(dp2235
S'name'
p2236
NsS'ipaddr'
p2237
V127.0.0.1
p2238
sS'session_id'
p2239
I14934299
sS'port'
p2240
I5002
sS'score'
p2241
I450
sS'id'
p2242
NsS'tank_id'
p2243
I2
saasV84640762
p2244
(lp2245
S'._._._._._._._._._._.\n| ._._._.   ._._._. |\n| | ._.       ._. | |\n| | |_.       ._| | |\n| |_._._.   ._._._| |\n|                   |\n| ._._._.   ._._._. |\n| |     |   |     | |\n| |   ._|   |_.   | |\n| |_._._.   ._._._| |\n|_._._._._._._._._._|'
p2246
a(lp2247
(dp2248
S'name'
p2249
S'GUEST3'
p2250
sS'ipaddr'
p2251
V127.0.0.1
p2252
sS'session_id'
p2253
I1841197
sS'port'
p2254
I5002
sS'score'
p2255
I0
sS'deadtime'
p2256
F2147483647.0
sS'id'
p2257
NsS'tank_id'
p2258
I2
sa(dp2259
S'name'
p2260
S'GUEST1'
p2261
sS'ipaddr'
p2262
V127.0.0.1
p2263
sS'session_id'
p2264
I65691984
sS'id'
p2265
NsS'score'
p2266
I0
sS'deadtime'
p2267
F1412313364.71
sS'port'
p2268
I5003
sS'tank_id'
p2269
I2
sa(dp2270
S'name'
p2271
S'GUEST2'
p2272
sS'ipaddr'
p2273
V127.0.0.1
p2274
sS'session_id'
p2275
I20950945
sS'port'
p2276
I5001
sS'score'
p2277
I960
sS'deadtime'
p2278
F2147483647.0
sS'id'
p2279
NsS'tank_id'
p2280
I2
saaI01
asV98420160
p2281
(lp2282
S'._._._._._._._._._._.\n|                   |\n|   ._._._._._._.   |\n|   |           |   |\n|   |   . ._.       |\n|   |   |   |   .   |\n|       |_. |   |   |\n|   .           |   |\n|   |_._._._._._|   |\n|                   |\n|_._._._._._._._._._|'
p2283
a(lp2284
(dp2285
S'name'
p2286
S'GUEST2'
p2287
sS'ipaddr'
p2288
V127.0.0.1
p2289
sS'session_id'
p2290
I53720959
sS'port'
p2291
I5001
sS'score'
p2292
I-1
sS'id'
p2293
NsS'tank_id'
p2294
I2
sa(dp2295
S'name'
p2296
S'GUEST1'
p2297
sS'ipaddr'
p2298
V127.0.0.1
p2299
sS'session_id'
p2300
I96679735
sS'port'
p2301
I5002
sS'score'
p2302
I-1
sS'id'
p2303
NsS'tank_id'
p2304
I2
saaI00
asV17447428
p2305
(lp2306
S'._._._._._._._._._._.\n|   | | | | | | |   |\n|_.               ._|\n|_.     ._._.     ._|\n|_.   .   |   .   ._|\n|_.   |_.   ._|   ._|\n|_.   |   .   |   ._|\n|_.     ._|_.     ._|\n|_.               ._|\n|   . . . . . . .   |\n|_._|_|_|_|_|_|_|_._|'
p2307
a(lp2308
(dp2309
S'name'
p2310
S'GUEST2'
p2311
sS'ipaddr'
p2312
V127.0.0.1
p2313
sS'session_id'
p2314
I99178400
sS'port'
p2315
I5001
sS'score'
p2316
I-1
sS'id'
p2317
NsS'tank_id'
p2318
I2
sa(dp2319
S'name'
p2320
S'GUEST1'
p2321
sS'ipaddr'
p2322
V127.0.0.1
p2323
sS'session_id'
p2324
I97674165
sS'port'
p2325
I5002
sS'score'
p2326
I-1
sS'id'
p2327
NsS'tank_id'
p2328
I2
saaI00
asV89138342
p2329
(lp2330
S'._._._._._._._._._._.\n|                   |\n| ._. ._.   ._. ._. |\n| | | | |   | | | | |\n|                   |\n|                   |\n| ._._._._._._._._. |\n|     |       |     |\n|     |   .   |     |\n|         |         |\n|_._._._._|_._._._._|'
p2331
a(lp2332
(dp2333
S'name'
p2334
S'GUEST2'
p2335
sS'ipaddr'
p2336
V127.0.0.1
p2337
sS'session_id'
p2338
I54895292
sS'id'
p2339
NsS'score'
p2340
I0
sS'deadtime'
p2341
F1412308339.68
sS'port'
p2342
I5003
sS'tank_id'
p2343
I2
sa(dp2344
S'name'
p2345
S'GUEST1'
p2346
sS'ipaddr'
p2347
V127.0.0.1
p2348
sS'session_id'
p2349
I46367638
sS'port'
p2350
I5001
sS'score'
p2351
I0
sS'deadtime'
p2352
F2147483647.0
sS'id'
p2353
NsS'tank_id'
p2354
I2
sa(dp2355
S'name'
p2356
S'GUEST2'
p2357
sS'ipaddr'
p2358
V127.0.0.1
p2359
sS'session_id'
p2360
I73956446
sS'id'
p2361
NsS'score'
p2362
I405
sS'deadtime'
p2363
F2147483647.0
sS'port'
p2364
I5002
sS'tank_id'
p2365
I2
saaI01
asV79637824
p2366
(lp2367
S'._._._._._._._._._._.\n| ._. ._. | ._. ._. |\n| | ._. | | |     | |\n|   |_. |_.         |\n| |_._.   | |_. ._| |\n|_._. |_._|_._. ._._|\n| ._._._._|         |\n| | . ._. |         |\n| | | | | .         |\n|_._|_. | |         |\n|_._._._._|_._._._._|'
p2368
a(lp2369
(dp2370
S'name'
p2371
NsS'ipaddr'
p2372
V127.0.0.1
p2373
sS'session_id'
p2374
I19981785
sS'port'
p2375
I5001
sS'score'
p2376
I-1
sS'id'
p2377
NsS'tank_id'
p2378
I2
sa(dp2379
S'name'
p2380
NsS'ipaddr'
p2381
V127.0.0.1
p2382
sS'session_id'
p2383
I80516193
sS'port'
p2384
I5002
sS'score'
p2385
I-1
sS'id'
p2386
NsS'tank_id'
p2387
I2
saasV90053574
p2388
(lp2389
S'._._._._._._._._._._.\n| ._._._.   ._._._. |\n| | ._._.   ._._. | |\n| | | ._.   ._. | | |\n| | | |       | | | |\n|                   |\n| . . .       . . . |\n| | | |_.   ._| | | |\n| | |_._.   ._._| | |\n| |_._._.   ._._._| |\n|_._._._._._._._._._|'
p2390
a(lp2391
(dp2392
S'name'
p2393
S'GUEST5'
p2394
sS'ipaddr'
p2395
V192.168.1.37
p2396
sS'session_id'
p2397
I1732516
sS'id'
p2398
NsS'score'
p2399
I1000
sS'deadtime'
p2400
F1412309959.37
sS'port'
p2401
I8800
sS'tank_id'
p2402
I2
sa(dp2403
S'name'
p2404
S'GUEST1'
p2405
sS'ipaddr'
p2406
V192.168.1.36
p2407
sS'session_id'
p2408
I5569905
sS'port'
p2409
I8800
sS'score'
p2410
I2480
sS'deadtime'
p2411
F1412309955.38
sS'id'
p2412
NsS'tank_id'
p2413
I2
sa(dp2414
S'name'
p2415
S'GUEST2'
p2416
sS'ipaddr'
p2417
V192.168.1.35
p2418
sS'session_id'
p2419
I78820681
sS'id'
p2420
NsS'score'
p2421
I1000
sS'deadtime'
p2422
F2147483647.0
sS'port'
p2423
I8800
sS'tank_id'
p2424
I0
sa(dp2425
S'name'
p2426
S'GUEST3'
p2427
sS'ipaddr'
p2428
V192.168.1.38
p2429
sS'session_id'
p2430
I59668150
sS'port'
p2431
I8800
sS'score'
p2432
I0
sS'deadtime'
p2433
F1412309945.25
sS'id'
p2434
NsS'tank_id'
p2435
I0
sa(dp2436
S'name'
p2437
S'GUEST4'
p2438
sS'ipaddr'
p2439
V192.168.1.39
p2440
sS'session_id'
p2441
I76018125
sS'id'
p2442
NsS'score'
p2443
I920
sS'deadtime'
p2444
F1412309974.77
sS'port'
p2445
I8800
sS'tank_id'
p2446
I1
saaI01
asV1309426
p2447
(lp2448
S'._._._._._._._._._._.\n| . . ._. . ._._. . |\n| | | | . |   ._. | |\n| ._|_._| | ._|   | |\n| ._._._._.   ._._| |\n| . | . ._._._| ._._|\n| | | | | ._. | |   |\n| . . . . ._|   |_. |\n| | | | | | ._._| . |\n| ._| |_. |_._._._| |\n|_._._._._._._._._._|'
p2449
a(lp2450
(dp2451
S'name'
p2452
S'GUEST2'
p2453
sS'ipaddr'
p2454
V127.0.0.1
p2455
sS'session_id'
p2456
I25090032
sS'port'
p2457
I5003
sS'score'
p2458
I0
sS'deadtime'
p2459
F2147483647.0
sS'id'
p2460
NsS'tank_id'
p2461
I2
sa(dp2462
S'name'
p2463
S'GUEST1'
p2464
sS'ipaddr'
p2465
V127.0.0.1
p2466
sS'session_id'
p2467
I67074750
sS'id'
p2468
NsS'score'
p2469
I555
sS'deadtime'
p2470
F2147483647.0
sS'port'
p2471
I5001
sS'tank_id'
p2472
I2
sa(dp2473
S'name'
p2474
S'GUEST2'
p2475
sS'ipaddr'
p2476
V127.0.0.1
p2477
sS'session_id'
p2478
I91060820
sS'port'
p2479
I5002
sS'score'
p2480
I0
sS'deadtime'
p2481
F1412305221.42
sS'id'
p2482
NsS'tank_id'
p2483
I2
saaI01
asV39790331
p2484
(lp2485
S'._._._._._._._._._._.\n|   | | | | | | |   |\n|_.               ._|\n|_.     ._._.     ._|\n|_.   .   |   .   ._|\n|_.   |_.   ._|   ._|\n|_.   |   .   |   ._|\n|_.     ._|_.     ._|\n|_.               ._|\n|   . . . . . . .   |\n|_._|_|_|_|_|_|_|_._|'
p2486
a(lp2487
(dp2488
S'name'
p2489
S'GUEST2'
p2490
sS'ipaddr'
p2491
V127.0.0.1
p2492
sS'session_id'
p2493
I30149109
sS'id'
p2494
NsS'score'
p2495
I405
sS'deadtime'
p2496
F2147483647.0
sS'port'
p2497
I5001
sS'tank_id'
p2498
I2
sa(dp2499
S'name'
p2500
S'GUEST1'
p2501
sS'ipaddr'
p2502
V127.0.0.1
p2503
sS'session_id'
p2504
I86796548
sS'port'
p2505
I5002
sS'score'
p2506
I0
sS'deadtime'
p2507
F1412268088.45
sS'id'
p2508
NsS'tank_id'
p2509
I2
saaI01
asV55318351
p2510
(lp2511
S'._._._._._._._._._._.\n| ._._._.   ._._._. |\n| | ._._.   ._._. | |\n| | | ._.   ._. | | |\n| | | |       | | | |\n|                   |\n| . . .       . . . |\n| | | |_.   ._| | | |\n| | |_._.   ._._| | |\n| |_._._.   ._._._| |\n|_._._._._._._._._._|'
p2512
a(lp2513
(dp2514
S'name'
p2515
NsS'ipaddr'
p2516
V192.168.1.38
p2517
sS'session_id'
p2518
I51501711
sS'port'
p2519
I8800
sS'score'
p2520
I480
sS'id'
p2521
NsS'tank_id'
p2522
I2
sa(dp2523
S'name'
p2524
NsS'ipaddr'
p2525
V192.168.1.35
p2526
sS'session_id'
p2527
I95465445
sS'port'
p2528
I8800
sS'score'
p2529
I0
sS'id'
p2530
NsS'tank_id'
p2531
I2
sa(dp2532
S'name'
p2533
NsS'ipaddr'
p2534
V192.168.1.36
p2535
sS'session_id'
p2536
I88108202
sS'port'
p2537
I8800
sS'score'
p2538
I300
sS'id'
p2539
NsS'tank_id'
p2540
I0
sa(dp2541
S'name'
p2542
NsS'ipaddr'
p2543
V192.168.1.37
p2544
sS'session_id'
p2545
I28401186
sS'port'
p2546
I8800
sS'score'
p2547
I510
sS'id'
p2548
NsS'tank_id'
p2549
I2
saasV9272605
p2550
(lp2551
S'._._._._._._._._._._.\n| ._._._._.     ._. |\n| |   | |     . | | |\n| |_. ._.   ._|_|   |\n| |_. |     | |   . |\n| |     .   |   ._| |\n|     . |     ._| . |\n|   ._|_|   ._| . | |\n| . | |   ._| ._| | |\n| |_|   ._| ._._._| |\n|_._._._._._._._._._|'
p2552
a(lp2553
(dp2554
S'name'
p2555
S'GUEST3'
p2556
sS'ipaddr'
p2557
V192.168.1.38
p2558
sS'session_id'
p2559
I14897280
sS'port'
p2560
I8800
sS'score'
p2561
I150
sS'deadtime'
p2562
F2147483647.0
sS'id'
p2563
NsS'tank_id'
p2564
I1
sa(dp2565
S'name'
p2566
S'GUEST1'
p2567
sS'ipaddr'
p2568
V192.168.1.37
p2569
sS'session_id'
p2570
I54499075
sS'id'
p2571
NsS'score'
p2572
I165
sS'deadtime'
p2573
F1412311211.66
sS'port'
p2574
I8800
sS'tank_id'
p2575
I2
saaI01
asV30424893
p2576
(lp2577
S'._._._._._._._._._._.\n|   .   .   .   |   |\n| ._|_. |_._|_._._. |\n|   |   |   .   |   |\n|_._| ._._._|_._| ._|\n|   |   |   |   .   |\n| ._._._. ._. ._|_._|\n|   |   |   |   .   |\n|_._| ._|_. |_._| ._|\n|   .   |   |   |   |\n|_._|_._._._|_._._._|'
p2578
a(lp2579
(dp2580
S'name'
p2581
S'GUEST2'
p2582
sS'ipaddr'
p2583
V192.168.1.38
p2584
sS'session_id'
p2585
I58148068
sS'id'
p2586
NsS'score'
p2587
I0
sS'deadtime'
p2588
F2147483647.0
sS'port'
p2589
I8800
sS'tank_id'
p2590
I2
sa(dp2591
S'name'
p2592
S'GUEST1'
p2593
sS'ipaddr'
p2594
V192.168.1.39
p2595
sS'session_id'
p2596
I83041183
sS'port'
p2597
I8800
sS'score'
p2598
I0
sS'deadtime'
p2599
F2147483647.0
sS'id'
p2600
NsS'tank_id'
p2601
I2
saaI01
asV89596256
p2602
(lp2603
S'._._._._._._._._._._.\n|   |_. ._._. ._|   |\n|_.   |_.   ._|   ._|\n| |_.   |   |   ._| |\n| . |   ._._.   | . |\n| |               | |\n| | .   ._._.   . | |\n| ._|   .   .   |_. |\n|_|   ._|   |_.   |_|\n|   ._| ._._. |_.   |\n|_._|_._._._._._|_._|'
p2604
a(lp2605
(dp2606
S'name'
p2607
NsS'ipaddr'
p2608
V127.0.0.1
p2609
sS'session_id'
p2610
I12193401
sS'port'
p2611
I5001
sS'score'
p2612
I-1
sS'id'
p2613
NsS'tank_id'
p2614
I2
sa(dp2615
S'name'
p2616
NsS'ipaddr'
p2617
V127.0.0.1
p2618
sS'session_id'
p2619
I30942434
sS'port'
p2620
I5002
sS'score'
p2621
I-1
sS'id'
p2622
NsS'tank_id'
p2623
I2
saasV93990784
p2624
(lp2625
S'._._._._._._._._._._.\n|                   |\n|   ._._._._._._.   |\n|   |           |   |\n|   |   . ._.       |\n|   |   |   |   .   |\n|       |_. |   |   |\n|   .           |   |\n|   |_._._._._._|   |\n|                   |\n|_._._._._._._._._._|'
p2626
a(lp2627
(dp2628
S'name'
p2629
S'GUEST2'
p2630
sS'ipaddr'
p2631
V127.0.0.1
p2632
sS'session_id'
p2633
I96539118
sS'port'
p2634
I5001
sS'score'
p2635
I150
sS'deadtime'
p2636
F2147483647.0
sS'id'
p2637
NsS'tank_id'
p2638
I2
sa(dp2639
S'name'
p2640
S'GUEST1'
p2641
sS'ipaddr'
p2642
V127.0.0.1
p2643
sS'session_id'
p2644
I38375382
sS'id'
p2645
NsS'score'
p2646
I0
sS'deadtime'
p2647
F2147483647.0
sS'port'
p2648
I5002
sS'tank_id'
p2649
I2
saaI01
asV95893109
p2650
(lp2651
S'._._._._._._._._._._.\n|   | | | | | | |   |\n|_.               ._|\n|_.     ._._.     ._|\n|_.   .   |   .   ._|\n|_.   |_.   ._|   ._|\n|_.   |   .   |   ._|\n|_.     ._|_.     ._|\n|_.               ._|\n|   . . . . . . .   |\n|_._|_|_|_|_|_|_|_._|'
p2652
a(lp2653
(dp2654
S'name'
p2655
S'GUEST2'
p2656
sS'ipaddr'
p2657
V127.0.0.1
p2658
sS'session_id'
p2659
I53957872
sS'port'
p2660
I5001
sS'score'
p2661
I-1
sS'id'
p2662
NsS'tank_id'
p2663
I2
sa(dp2664
S'name'
p2665
S'GUEST1'
p2666
sS'ipaddr'
p2667
V127.0.0.1
p2668
sS'session_id'
p2669
I17269767
sS'port'
p2670
I5002
sS'score'
p2671
I-1
sS'id'
p2672
NsS'tank_id'
p2673
I2
saaI00
asV65850247
p2674
(lp2675
S'._._._._._._._._._._.\n| . . ._.   |     . |\n|_| |       | ._._| |\n| ._| ._.   ._|   | |\n| ._._._._._| . ._| |\n| . | ._._._._| . | |\n| | | |   .     | . |\n| | | |   |   ._. | |\n| | | |   |   ._|   |\n| ._| |_. |_._._._. |\n|_._._._._._._._._._|'
p2676
a(lp2677
(dp2678
S'name'
p2679
NsS'ipaddr'
p2680
V127.0.0.1
p2681
sS'session_id'
p2682
I36535807
sS'port'
p2683
I5002
sS'score'
p2684
I0
sS'id'
p2685
NsS'tank_id'
p2686
I2
sa(dp2687
S'name'
p2688
NsS'ipaddr'
p2689
V127.0.0.1
p2690
sS'session_id'
p2691
I86341889
sS'port'
p2692
I5001
sS'score'
p2693
I0
sS'id'
p2694
NsS'tank_id'
p2695
I2
saasV2789754
p2696
(lp2697
S'._._._._._._._._._._.\n| . . ._.   |     . |\n|_| |       | ._._| |\n| ._| ._.   ._|   | |\n| ._._._._._| . ._| |\n| . | ._._._._| . | |\n| | | |   .     | . |\n| | | |   |   ._. | |\n| | | |   |   ._|   |\n| ._| |_. |_._._._. |\n|_._._._._._._._._._|'
p2698
a(lp2699
(dp2700
S'name'
p2701
S'USER'
p2702
sS'ipaddr'
p2703
V127.0.0.1
p2704
sS'session_id'
p2705
I450323
sS'port'
p2706
I5001
sS'score'
p2707
I-1
sS'id'
p2708
V1001
p2709
sS'tank_id'
p2710
I5
sa(dp2711
S'name'
p2712
S'USER'
p2713
sS'ipaddr'
p2714
V127.0.0.1
p2715
sS'session_id'
p2716
I19253029
sS'port'
p2717
I5002
sS'score'
p2718
I-1
sS'id'
p2719
V1000
p2720
sS'tank_id'
p2721
I0
saasV51788421
p2722
(lp2723
S'._._._._._._._._._._.\n| ._. ._. | ._. ._. |\n| | ._. | | |     | |\n|   |_. |_.         |\n| |_._.   | |_. ._| |\n|_._. |_._|_._. ._._|\n| ._._._._|         |\n| | . ._. |         |\n| | | | | .         |\n|_._|_. | |         |\n|_._._._._|_._._._._|'
p2724
a(lp2725
(dp2726
S'name'
p2727
S'GUEST2'
p2728
sS'ipaddr'
p2729
V127.0.0.1
p2730
sS'session_id'
p2731
I24275892
sS'id'
p2732
NsS'score'
p2733
I0
sS'deadtime'
p2734
F2147483647.0
sS'port'
p2735
I5001
sS'tank_id'
p2736
I2
sa(dp2737
S'name'
p2738
S'GUEST1'
p2739
sS'ipaddr'
p2740
V127.0.0.1
p2741
sS'session_id'
p2742
I22596999
sS'port'
p2743
I5002
sS'score'
p2744
I0
sS'deadtime'
p2745
F2147483647.0
sS'id'
p2746
NsS'tank_id'
p2747
I2
saaI01
asV30647994
p2748
(lp2749
S'._._._._._._._._._._.\n| ._._._.   ._._._. |\n| | ._._.   ._._. | |\n| | | ._.   ._. | | |\n| | | |       | | | |\n|                   |\n| . . .       . . . |\n| | | |_.   ._| | | |\n| | |_._.   ._._| | |\n| |_._._.   ._._._| |\n|_._._._._._._._._._|'
p2750
a(lp2751
(dp2752
S'name'
p2753
S'GUEST2'
p2754
sS'ipaddr'
p2755
V192.168.1.39
p2756
sS'session_id'
p2757
I84794613
sS'port'
p2758
I8800
sS'score'
p2759
I760
sS'deadtime'
p2760
F1412306962.24
sS'id'
p2761
NsS'tank_id'
p2762
I2
sa(dp2763
S'name'
p2764
S'GUEST1'
p2765
sS'ipaddr'
p2766
V192.168.1.37
p2767
sS'session_id'
p2768
I80170381
sS'id'
p2769
NsS'score'
p2770
I1120
sS'deadtime'
p2771
F1412306922.83
sS'port'
p2772
I8800
sS'tank_id'
p2773
I2
sa(dp2774
S'name'
p2775
S'GUEST2'
p2776
sS'ipaddr'
p2777
V192.168.1.38
p2778
sS'session_id'
p2779
I7266280
sS'id'
p2780
NsS'score'
p2781
I1800
sS'deadtime'
p2782
F1412306970.89
sS'port'
p2783
I8800
sS'tank_id'
p2784
I2
sa(dp2785
S'name'
p2786
S'GUEST3'
p2787
sS'ipaddr'
p2788
V192.168.1.36
p2789
sS'session_id'
p2790
I65638961
sS'port'
p2791
I8800
sS'score'
p2792
I600
sS'deadtime'
p2793
F2147483647.0
sS'id'
p2794
NsS'tank_id'
p2795
I1
saaI01
asV87939347
p2796
(lp2797
S'._._._._._._._._._._.\n| . . |_.   |_._.   |\n|_| | | ._. | ._._. |\n| ._|_._| | ._|_. | |\n| |_._._._._| ._._| |\n| . . . ._._._| ._._|\n| | | | | ._. | | . |\n| | | | ._| . |_._| |\n| | | | | | |_._| . |\n| ._| |_. |_._._._| |\n|_._._._._._._._._._|'
p2798
a(lp2799
(dp2800
S'name'
p2801
S'GUEST2'
p2802
sS'ipaddr'
p2803
V127.0.0.1
p2804
sS'session_id'
p2805
I28041422
sS'port'
p2806
I5001
sS'score'
p2807
I-1
sS'id'
p2808
NsS'tank_id'
p2809
I2
sa(dp2810
S'name'
p2811
S'GUEST1'
p2812
sS'ipaddr'
p2813
V127.0.0.1
p2814
sS'session_id'
p2815
I82316578
sS'port'
p2816
I5002
sS'score'
p2817
I-1
sS'id'
p2818
NsS'tank_id'
p2819
I2
saaI00
asV48952716
p2820
(lp2821
S'._._._._._._._._._._.\n|_. ._. ._. ._. ._. |\n| ._._._. ._._._. ._|\n|_. ._._._. ._._._. |\n| ._. ._. ._. ._. ._|\n|_.   ._._._._.   ._|\n|_. ._._.   ._._. ._|\n| ._._._.   ._._._. |\n|_.   ._._._._.   ._|\n|   ._._.   ._._.   |\n|_._._._._._._._._._|'
p2822
a(lp2823
(dp2824
S'name'
p2825
S'GUEST2'
p2826
sS'ipaddr'
p2827
V127.0.0.1
p2828
sS'session_id'
p2829
I27331028
sS'port'
p2830
I5001
sS'score'
p2831
I-1
sS'id'
p2832
NsS'tank_id'
p2833
I2
sa(dp2834
S'name'
p2835
S'GUEST1'
p2836
sS'ipaddr'
p2837
V127.0.0.1
p2838
sS'session_id'
p2839
I15059351
sS'port'
p2840
I5002
sS'score'
p2841
I-1
sS'id'
p2842
NsS'tank_id'
p2843
I2
saaI00
asV4016164
p2844
(lp2845
S'._._._._._._._._._._.\n| . . ._. . ._._. . |\n| | | | . |   ._. | |\n| ._|_._| | ._|   | |\n| ._._._._.   ._._| |\n| . | . ._._._| ._._|\n| | | | | ._. | |   |\n| . . . . ._|   |_. |\n| | | | | | ._._| . |\n| ._| |_. |_._._._| |\n|_._._._._._._._._._|'
p2846
a(lp2847
(dp2848
S'name'
p2849
S'GUEST2'
p2850
sS'ipaddr'
p2851
V192.168.1.39
p2852
sS'session_id'
p2853
I53780831
sS'port'
p2854
I8800
sS'score'
p2855
I360
sS'deadtime'
p2856
F1412302817.86
sS'id'
p2857
NsS'tank_id'
p2858
I2
sa(dp2859
S'name'
p2860
S'GUEST1'
p2861
sS'ipaddr'
p2862
V192.168.1.38
p2863
sS'session_id'
p2864
I86060495
sS'id'
p2865
NsS'score'
p2866
I390
sS'deadtime'
p2867
F2147483647.0
sS'port'
p2868
I8800
sS'tank_id'
p2869
I2
saaI01
asV91484868
p2870
(lp2871
S'._._._._._._._._._._.\n|   .   .   .   |   |\n| ._|_. |_._|_._._. |\n|   |   |   .   |   |\n|_._| ._._._|_._| ._|\n|   |   |   |   .   |\n| ._._._. ._. ._|_._|\n|   |   |   |   .   |\n|_._| ._|_. |_._| ._|\n|   .   |   |   |   |\n|_._|_._._._|_._._._|'
p2872
a(lp2873
(dp2874
S'name'
p2875
S'GUEST5'
p2876
sS'ipaddr'
p2877
V192.168.1.38
p2878
sS'session_id'
p2879
I18301761
sS'id'
p2880
NsS'score'
p2881
I1200
sS'deadtime'
p2882
F1412310999.32
sS'port'
p2883
I8800
sS'tank_id'
p2884
I0
sa(dp2885
S'name'
p2886
S'GUEST1'
p2887
sS'ipaddr'
p2888
V192.168.1.37
p2889
sS'session_id'
p2890
I52340839
sS'port'
p2891
I8800
sS'score'
p2892
I1200
sS'deadtime'
p2893
F1412310999.3
sS'id'
p2894
NsS'tank_id'
p2895
I0
sa(dp2896
S'name'
p2897
S'GUEST2'
p2898
sS'ipaddr'
p2899
V192.168.1.39
p2900
sS'session_id'
p2901
I32242396
sS'port'
p2902
I8800
sS'score'
p2903
I1600
sS'deadtime'
p2904
F2147483647.0
sS'id'
p2905
NsS'tank_id'
p2906
I1
saaI01
asV79202359
p2907
(lp2908
S'._._._._._._._._._._.\n|       |   . ._._. |\n|_.   ._|_._| | . | |\n| . . . |   . | | | |\n| | | | ._._|_._|_. |\n| |_._| .   | .   . |\n|_.   ._|_._. |_._| |\n| . . . . . | |   | |\n| | |_|_| | |_. . ._|\n| |_. | ._| | ._|_. |\n|_._._._._._._._._._|'
p2909
a(lp2910
(dp2911
S'name'
p2912
S'GUEST2'
p2913
sS'ipaddr'
p2914
V127.0.0.1
p2915
sS'session_id'
p2916
I62312644
sS'port'
p2917
I5001
sS'score'
p2918
I-1
sS'id'
p2919
NsS'tank_id'
p2920
I2
sa(dp2921
S'name'
p2922
S'GUEST1'
p2923
sS'ipaddr'
p2924
V127.0.0.1
p2925
sS'session_id'
p2926
I10912129
sS'port'
p2927
I5002
sS'score'
p2928
I-1
sS'id'
p2929
NsS'tank_id'
p2930
I2
saaI00
asV99342766
p2931
(lp2932
S'._._._._._._._._._._.\n| ._. ._. | ._. ._. |\n| | ._. | | |     | |\n|   |_. |_.         |\n| |_._.   | |_. ._| |\n|_._. |_._|_._. ._._|\n| ._._._._|         |\n| | . ._. |         |\n| | | | | .         |\n|_._|_. | |         |\n|_._._._._|_._._._._|'
p2933
a(lp2934
(dp2935
S'name'
p2936
S'GUEST2'
p2937
sS'ipaddr'
p2938
V127.0.0.1
p2939
sS'session_id'
p2940
I38454489
sS'id'
p2941
NsS'score'
p2942
I0
sS'deadtime'
p2943
F2147483647.0
sS'port'
p2944
I5001
sS'tank_id'
p2945
I2
sa(dp2946
S'name'
p2947
S'GUEST1'
p2948
sS'ipaddr'
p2949
V127.0.0.1
p2950
sS'session_id'
p2951
I88717136
sS'port'
p2952
I5003
sS'score'
p2953
I0
sS'deadtime'
p2954
F2147483647.0
sS'id'
p2955
NsS'tank_id'
p2956
I2
sa(dp2957
S'name'
p2958
S'GUEST2'
p2959
sS'ipaddr'
p2960
V127.0.0.1
p2961
sS'session_id'
p2962
I11686518
sS'port'
p2963
I5002
sS'score'
p2964
I0
sS'deadtime'
p2965
F2147483647.0
sS'id'
p2966
NsS'tank_id'
p2967
I2
saaI01
asV32568484
p2968
(lp2969
S'._._._._._._._._._._.\n|                   |\n| ._. ._.   ._. ._. |\n| | | | |   | | | | |\n|                   |\n|                   |\n| ._._._._._._._._. |\n|     |       |     |\n|     |   .   |     |\n|         |         |\n|_._._._._|_._._._._|'
p2970
a(lp2971
(dp2972
S'name'
p2973
S'GUEST5'
p2974
sS'ipaddr'
p2975
V192.168.1.38
p2976
sS'session_id'
p2977
I79919414
sS'id'
p2978
NsS'score'
p2979
I600
sS'deadtime'
p2980
F2147483647.0
sS'port'
p2981
I8800
sS'tank_id'
p2982
I1
sa(dp2983
S'name'
p2984
S'GUEST1'
p2985
sS'ipaddr'
p2986
V192.168.1.39
p2987
sS'session_id'
p2988
I44968830
sS'port'
p2989
I8800
sS'score'
p2990
I600
sS'deadtime'
p2991
F1412310339.03
sS'id'
p2992
NsS'tank_id'
p2993
I0
saaI01
asV63405612
p2994
(lp2995
S'._._._._._._._._._._.\n| . . ._. . ._._. . |\n| | | | . |   ._. | |\n| ._|_._| | ._|   | |\n| ._._._._.   ._._| |\n| . | . ._._._| ._._|\n| | | | | ._. | |   |\n| . . . . ._|   |_. |\n| | | | | | ._._| . |\n| ._| |_. |_._._._| |\n|_._._._._._._._._._|'
p2996
a(lp2997
(dp2998
S'name'
p2999
S'GUEST3'
p3000
sS'ipaddr'
p3001
V127.0.0.1
p3002
sS'session_id'
p3003
I71888556
sS'port'
p3004
I5001
sS'score'
p3005
I0
sS'deadtime'
p3006
F2147483647.0
sS'id'
p3007
NsS'tank_id'
p3008
I2
sa(dp3009
S'name'
p3010
S'GUEST1'
p3011
sS'ipaddr'
p3012
V127.0.0.1
p3013
sS'session_id'
p3014
I74995228
sS'id'
p3015
NsS'score'
p3016
I0
sS'deadtime'
p3017
F1412314495.12
sS'port'
p3018
I5002
sS'tank_id'
p3019
I2
sa(dp3020
S'name'
p3021
S'GUEST2'
p3022
sS'ipaddr'
p3023
V127.0.0.1
p3024
sS'session_id'
p3025
I47155241
sS'id'
p3026
NsS'score'
p3027
I450
sS'deadtime'
p3028
F2147483647.0
sS'port'
p3029
I5003
sS'tank_id'
p3030
I2
saaI01
asV89731463
p3031
(lp3032
S'._._._._._._._._._._.\n|   |  _._  |  _._  |\n|   |       |       |\n|   |       |       | \n|   |_.   ._|_.   ._|\n|   |   .   |   .   |\n|_.   ._|_.   ._|   |\n|       |       |   |\n|       |       |   |\n|  _._  |  _._  |   |\n|_._._._|_._._._|_._|'
p3033
a(lp3034
(dp3035
S'name'
p3036
NsS'ipaddr'
p3037
V192.168.1.38
p3038
sS'session_id'
p3039
I17519921
sS'port'
p3040
I8800
sS'score'
p3041
I920
sS'id'
p3042
NsS'tank_id'
p3043
I2
sa(dp3044
S'name'
p3045
NsS'ipaddr'
p3046
V192.168.1.35
p3047
sS'session_id'
p3048
I2443833
sS'port'
p3049
I8800
sS'score'
p3050
I1880
sS'id'
p3051
NsS'tank_id'
p3052
I5
sa(dp3053
S'name'
p3054
NsS'ipaddr'
p3055
V192.168.1.37
p3056
sS'session_id'
p3057
I47180851
sS'port'
p3058
I8800
sS'score'
p3059
I480
sS'id'
p3060
NsS'tank_id'
p3061
I2
sa(dp3062
S'name'
p3063
NsS'ipaddr'
p3064
V192.168.1.36
p3065
sS'session_id'
p3066
I9848611
sS'port'
p3067
I8800
sS'score'
p3068
I240
sS'id'
p3069
NsS'tank_id'
p3070
I1
saasV56635784
p3071
(lp3072
S'._._._._._._._._._._.\n|                   |\n| ._. ._.   ._. ._. |\n| | | | |   | | | | |\n|                   |\n|                   |\n| ._._._._._._._._. |\n|     |       |     |\n|     |   .   |     |\n|         |         |\n|_._._._._|_._._._._|'
p3073
a(lp3074
(dp3075
S'name'
p3076
S'GUEST2'
p3077
sS'ipaddr'
p3078
V127.0.0.1
p3079
sS'session_id'
p3080
I15650388
sS'id'
p3081
NsS'score'
p3082
I0
sS'deadtime'
p3083
F2147483647.0
sS'port'
p3084
I5002
sS'tank_id'
p3085
I2
sa(dp3086
S'name'
p3087
S'GUEST1'
p3088
sS'ipaddr'
p3089
V127.0.0.1
p3090
sS'session_id'
p3091
I68541420
sS'port'
p3092
I5001
sS'score'
p3093
I0
sS'deadtime'
p3094
F2147483647.0
sS'id'
p3095
NsS'tank_id'
p3096
I2
saaI01
asV91764877
p3097
(lp3098
S'._._._._._._._._._._.\n| .               . |\n| |   ._.   ._.   | |\n| |   |       |   | |\n| |               | |\n|_._._._. . ._._._._|\n| ._. | ._| | ._._. |\n|_. |_._. | | | . | |\n| ._| ._._|_._._| | |\n| | . | . | ._._._| |\n|_._|_._|_._._._._._|'
p3099
a(lp3100
(dp3101
S'name'
p3102
NsS'ipaddr'
p3103
V192.168.1.38
p3104
sS'session_id'
p3105
I94544687
sS'port'
p3106
I8800
sS'score'
p3107
I150
sS'id'
p3108
NsS'tank_id'
p3109
I2
sa(dp3110
S'name'
p3111
NsS'ipaddr'
p3112
V192.168.1.39
p3113
sS'session_id'
p3114
I46839567
sS'port'
p3115
I8800
sS'score'
p3116
I0
sS'id'
p3117
NsS'tank_id'
p3118
I2
sa(dp3119
S'name'
p3120
NsS'ipaddr'
p3121
V192.168.1.37
p3122
sS'session_id'
p3123
I73901775
sS'port'
p3124
I8800
sS'score'
p3125
I855
sS'id'
p3126
NsS'tank_id'
p3127
I2
saasV22314880
p3128
(lp3129
S'._._._._._._._._._._.\n| .       |       . |\n| |_._.   |   ._._| |\n| | ._.   |   ._. | |\n| | | ._.   ._. | | |\n| |   |       |   | |\n| | ._. ._._. ._. | |\n| | |   | . |   | | |\n| |_._.   |   ._._| |\n| |       |       | |\n|_._._._._|_._._._._|'
p3130
a(lp3131
(dp3132
S'name'
p3133
NsS'ipaddr'
p3134
V127.0.0.1
p3135
sS'session_id'
p3136
I55459408
sS'port'
p3137
I5001
sS'score'
p3138
I-1
sS'id'
p3139
NsS'tank_id'
p3140
I2
sa(dp3141
S'name'
p3142
NsS'ipaddr'
p3143
V127.0.0.1
p3144
sS'session_id'
p3145
I74479114
sS'port'
p3146
I5003
sS'score'
p3147
I-1
sS'id'
p3148
NsS'tank_id'
p3149
I2
sa(dp3150
S'name'
p3151
NsS'ipaddr'
p3152
V127.0.0.1
p3153
sS'session_id'
p3154
I14384758
sS'port'
p3155
I5002
sS'score'
p3156
I-1
sS'id'
p3157
NsS'tank_id'
p3158
I2
saasV26094612
p3159
(lp3160
S'._._._._._._._._._._.\n| ._._._._.     ._. |\n| |   | |     . | | |\n| |_. ._.   ._|_|   |\n| |_. |     | |   . |\n| |     .   |   ._| |\n|     . |     ._| . |\n|   ._|_|   ._| . | |\n| . | |   ._| ._| | |\n| |_|   ._| ._._._| |\n|_._._._._._._._._._|'
p3161
a(lp3162
(dp3163
S'name'
p3164
NsS'ipaddr'
p3165
V127.0.0.1
p3166
sS'session_id'
p3167
I94880848
sS'port'
p3168
I5001
sS'score'
p3169
I-1
sS'id'
p3170
NsS'tank_id'
p3171
I2
sa(dp3172
S'name'
p3173
NsS'ipaddr'
p3174
V127.0.0.1
p3175
sS'session_id'
p3176
I15781365
sS'port'
p3177
I5002
sS'score'
p3178
I-1
sS'id'
p3179
NsS'tank_id'
p3180
I2
saasV51312826
p3181
(lp3182
S'._._._._._._._._._._.\n| ._. ._. | ._. ._. |\n| | ._. | | |     | |\n|   |_. |_.         |\n| |_._.   | |_. ._| |\n|_._. |_._|_._. ._._|\n| ._._._._|         |\n| | . ._. |         |\n| | | | | .         |\n|_._|_. | |         |\n|_._._._._|_._._._._|'
p3183
a(lp3184
(dp3185
S'name'
p3186
S'GUEST3'
p3187
sS'ipaddr'
p3188
V192.168.1.37
p3189
sS'session_id'
p3190
I78837990
sS'port'
p3191
I8800
sS'score'
p3192
I280
sS'deadtime'
p3193
F1412311376.74
sS'id'
p3194
NsS'tank_id'
p3195
I2
sa(dp3196
S'name'
p3197
S'GUEST1'
p3198
sS'ipaddr'
p3199
V192.168.1.36
p3200
sS'session_id'
p3201
I87059022
sS'port'
p3202
I8800
sS'score'
p3203
I560
sS'deadtime'
p3204
F2147483647.0
sS'id'
p3205
NsS'tank_id'
p3206
I0
sa(dp3207
S'name'
p3208
S'GUEST2'
p3209
sS'ipaddr'
p3210
V192.168.1.38
p3211
sS'session_id'
p3212
I26639836
sS'id'
p3213
NsS'score'
p3214
I960
sS'deadtime'
p3215
F1412311399.79
sS'port'
p3216
I8800
sS'tank_id'
p3217
I1
saaI01
asV22072670
p3218
(lp3219
S'._._._._._._._._._._.\n| .       |       . |\n| |_._.   |   ._._| |\n| | ._.   |   ._. | |\n| | | ._.   ._. | | |\n| |   |       |   | |\n| | ._. ._._. ._. | |\n| | |   | . |   | | |\n| |_._.   |   ._._| |\n| |       |       | |\n|_._._._._|_._._._._|'
p3220
a(lp3221
(dp3222
S'name'
p3223
S'GUEST4'
p3224
sS'ipaddr'
p3225
V192.168.1.39
p3226
sS'session_id'
p3227
I83167407
sS'id'
p3228
NsS'score'
p3229
I345
sS'deadtime'
p3230
F1412307130.52
sS'port'
p3231
I8800
sS'tank_id'
p3232
I1
sa(dp3233
S'name'
p3234
S'GUEST1'
p3235
sS'ipaddr'
p3236
V192.168.1.36
p3237
sS'session_id'
p3238
I54865147
sS'port'
p3239
I8800
sS'score'
p3240
I210
sS'deadtime'
p3241
F2147483647.0
sS'id'
p3242
NsS'tank_id'
p3243
I1
sa(dp3244
S'name'
p3245
S'GUEST2'
p3246
sS'ipaddr'
p3247
V192.168.1.38
p3248
sS'session_id'
p3249
I67226203
sS'port'
p3250
I8800
sS'score'
p3251
I195
sS'deadtime'
p3252
F1412307039.74
sS'id'
p3253
NsS'tank_id'
p3254
I2
sa(dp3255
S'name'
p3256
S'GUEST3'
p3257
sS'ipaddr'
p3258
V192.168.1.37
p3259
sS'session_id'
p3260
I1531235
sS'id'
p3261
NsS'score'
p3262
I330
sS'deadtime'
p3263
F1412307098.45
sS'port'
p3264
I8800
sS'tank_id'
p3265
I2
saaI01
asV4471264
p3266
(lp3267
S'._._._._._._._._._._.\n|   | | | | | | |   |\n|_.               ._|\n|_.     ._._.     ._|\n|_.   .   |   .   ._|\n|_.   |_.   ._|   ._|\n|_.   |   .   |   ._|\n|_.     ._|_.     ._|\n|_.               ._|\n|   . . . . . . .   |\n|_._|_|_|_|_|_|_|_._|'
p3268
a(lp3269
(dp3270
S'name'
p3271
S'GUEST2'
p3272
sS'ipaddr'
p3273
V127.0.0.1
p3274
sS'session_id'
p3275
I66757248
sS'port'
p3276
I5001
sS'score'
p3277
I-1
sS'id'
p3278
NsS'tank_id'
p3279
I2
sa(dp3280
S'name'
p3281
S'GUEST1'
p3282
sS'ipaddr'
p3283
V127.0.0.1
p3284
sS'session_id'
p3285
I16040000
sS'port'
p3286
I5002
sS'score'
p3287
I-1
sS'id'
p3288
NsS'tank_id'
p3289
I2
saaI00
asV32105232
p3290
(lp3291
S'._._._._._._._._._._.\n| . . ._. . ._._. . |\n| | | | . |   ._. | |\n| ._|_._| | ._|   | |\n| ._._._._.   ._._| |\n| . | . ._._._| ._._|\n| | | | | ._. | |   |\n| . . . . ._|   |_. |\n| | | | | | ._._| . |\n| ._| |_. |_._._._| |\n|_._._._._._._._._._|'
p3292
a(lp3293
(dp3294
S'name'
p3295
S'USER'
p3296
sS'ipaddr'
p3297
V127.0.0.1
p3298
sS'session_id'
p3299
I91185648
sS'port'
p3300
I5001
sS'score'
p3301
I300
sS'id'
p3302
V1000
p3303
sS'tank_id'
p3304
I2
sa(dp3305
S'name'
p3306
S'USER'
p3307
sS'ipaddr'
p3308
V127.0.0.1
p3309
sS'session_id'
p3310
I7994928
sS'port'
p3311
I5002
sS'score'
p3312
I255
sS'id'
p3313
V1001
p3314
sS'tank_id'
p3315
I2
saasV9665660
p3316
(lp3317
S'._._._._._._._._._._.\n| . . ._.   |     . |\n|_| |       | ._._| |\n| ._| ._.   ._|   | |\n| ._._._._._| . ._| |\n| . | ._._._._| . | |\n| | | |   .     | . |\n| | | |   |   ._. | |\n| | | |   |   ._|   |\n| ._| |_. |_._._._. |\n|_._._._._._._._._._|'
p3318
a(lp3319
(dp3320
S'name'
p3321
NsS'ipaddr'
p3322
V127.0.0.1
p3323
sS'session_id'
p3324
I38963136
sS'port'
p3325
I5001
sS'score'
p3326
I0
sS'id'
p3327
NsS'tank_id'
p3328
I2
sa(dp3329
S'name'
p3330
NsS'ipaddr'
p3331
V127.0.0.1
p3332
sS'session_id'
p3333
I51933658
sS'port'
p3334
I5002
sS'score'
p3335
I-1
sS'id'
p3336
NsS'tank_id'
p3337
I2
saasV41024584
p3338
(lp3339
S'._._._._._._._._._._.\n| . | ._._._._. | . |\n| | ._._._._._._. | |\n| | ._._. . ._._. | |\n|_| |   . | .   | |_|\n| ._| ._| | |_. |_. |\n|_._._._. | ._._._._|\n|_. . |  ._.  | ._. |\n| ._| |  ._.  | | | |\n| | . |_.   ._|     |\n|_._|_._._._._._|_|_|'
p3340
a(lp3341
(dp3342
S'name'
p3343
S'GUEST2'
p3344
sS'ipaddr'
p3345
V127.0.0.1
p3346
sS'session_id'
p3347
I81404017
sS'port'
p3348
I5003
sS'score'
p3349
I0
sS'deadtime'
p3350
F1412311391.06
sS'id'
p3351
NsS'tank_id'
p3352
I2
sa(dp3353
S'name'
p3354
S'GUEST1'
p3355
sS'ipaddr'
p3356
V127.0.0.1
p3357
sS'session_id'
p3358
I68132499
sS'id'
p3359
NsS'score'
p3360
I0
sS'deadtime'
p3361
F2147483647.0
sS'port'
p3362
I5002
sS'tank_id'
p3363
I2
sa(dp3364
S'name'
p3365
S'GUEST2'
p3366
sS'ipaddr'
p3367
V127.0.0.1
p3368
sS'session_id'
p3369
I8556480
sS'port'
p3370
I5001
sS'score'
p3371
I495
sS'deadtime'
p3372
F2147483647.0
sS'id'
p3373
NsS'tank_id'
p3374
I2
saaI01
asV17729092
p3375
(lp3376
S'._._._._._._._._._._.\n|                   |\n|   ._._._._._._.   |\n|   |           |   |\n|   |   . ._.       |\n|   |   |   |   .   |\n|       |_. |   |   |\n|   .           |   |\n|   |_._._._._._|   |\n|                   |\n|_._._._._._._._._._|'
p3377
a(lp3378
(dp3379
S'name'
p3380
NsS'ipaddr'
p3381
V127.0.0.1
p3382
sS'session_id'
p3383
I79630644
sS'port'
p3384
I5001
sS'score'
p3385
I1710
sS'id'
p3386
NsS'tank_id'
p3387
I2
sa(dp3388
S'name'
p3389
NsS'ipaddr'
p3390
V127.0.0.1
p3391
sS'session_id'
p3392
I91848146
sS'port'
p3393
I5002
sS'score'
p3394
I-1
sS'id'
p3395
NsS'tank_id'
p3396
I2
sa(dp3397
S'name'
p3398
NsS'ipaddr'
p3399
V127.0.0.1
p3400
sS'session_id'
p3401
I28069756
sS'port'
p3402
I5003
sS'score'
p3403
I-1
sS'id'
p3404
NsS'tank_id'
p3405
I2
saasV24488388
p3406
(lp3407
S'._._._._._._._._._._.\n| .       |       . |\n| |_._.   |   ._._| |\n| | ._.   |   ._. | |\n| | | ._.   ._. | | |\n| |   |       |   | |\n| | ._. ._._. ._. | |\n| | |   | . |   | | |\n| |_._.   |   ._._| |\n| |       |       | |\n|_._._._._|_._._._._|'
p3408
a(lp3409
(dp3410
S'name'
p3411
S'GUEST2'
p3412
sS'ipaddr'
p3413
V127.0.0.1
p3414
sS'session_id'
p3415
I77856177
sS'port'
p3416
I5001
sS'score'
p3417
I-1
sS'id'
p3418
NsS'tank_id'
p3419
I2
sa(dp3420
S'name'
p3421
S'GUEST1'
p3422
sS'ipaddr'
p3423
V127.0.0.1
p3424
sS'session_id'
p3425
I49373425
sS'port'
p3426
I5002
sS'score'
p3427
I-1
sS'id'
p3428
NsS'tank_id'
p3429
I2
saaI00
asV66767090
p3430
(lp3431
S'._._._._._._._._._._.\n|   |_. ._._. ._|   |\n|_.   |_.   ._|   ._|\n| |_.   |   |   ._| |\n| . |   ._._.   | . |\n| |               | |\n| | .   ._._.   . | |\n| ._|   .   .   |_. |\n|_|   ._|   |_.   |_|\n|   ._| ._._. |_.   |\n|_._|_._._._._._|_._|'
p3432
a(lp3433
(dp3434
S'name'
p3435
S'GUEST2'
p3436
sS'ipaddr'
p3437
V192.168.1.38
p3438
sS'session_id'
p3439
I15736983
sS'id'
p3440
NsS'score'
p3441
I405
sS'deadtime'
p3442
F2147483647.0
sS'port'
p3443
I8800
sS'tank_id'
p3444
I2
sa(dp3445
S'name'
p3446
S'GUEST1'
p3447
sS'ipaddr'
p3448
V192.168.1.39
p3449
sS'session_id'
p3450
I87603635
sS'port'
p3451
I8800
sS'score'
p3452
I270
sS'deadtime'
p3453
F1412301466.95
sS'id'
p3454
NsS'tank_id'
p3455
I2
saaI01
asV32825532
p3456
(lp3457
S'._._._._._._._._._._.\n|   | | | | | | |   |\n|_.               ._|\n|_.     ._._.     ._|\n|_.   .   |   .   ._|\n|_.   |_.   ._|   ._|\n|_.   |   .   |   ._|\n|_.     ._|_.     ._|\n|_.               ._|\n|   . . . . . . .   |\n|_._|_|_|_|_|_|_|_._|'
p3458
a(lp3459
(dp3460
S'name'
p3461
S'GUEST3'
p3462
sS'ipaddr'
p3463
V192.168.1.37
p3464
sS'session_id'
p3465
I74811131
sS'port'
p3466
I8800
sS'score'
p3467
I900
sS'deadtime'
p3468
F1412311801.36
sS'id'
p3469
NsS'tank_id'
p3470
I2
sa(dp3471
S'name'
p3472
S'GUEST1'
p3473
sS'ipaddr'
p3474
V192.168.1.35
p3475
sS'session_id'
p3476
I7040060
sS'id'
p3477
NsS'score'
p3478
I660
sS'deadtime'
p3479
F1412311836.94
sS'port'
p3480
I8800
sS'tank_id'
p3481
I1
sa(dp3482
S'name'
p3483
S'GUEST2'
p3484
sS'ipaddr'
p3485
V192.168.1.36
p3486
sS'session_id'
p3487
I51834118
sS'port'
p3488
I8800
sS'score'
p3489
I60
sS'deadtime'
p3490
F2147483647.0
sS'id'
p3491
NsS'tank_id'
p3492
I1
sa(dp3493
S'name'
p3494
S'GUEST3'
p3495
sS'ipaddr'
p3496
V192.168.1.38
p3497
sS'session_id'
p3498
I64145760
sS'id'
p3499
NsS'score'
p3500
I320
sS'deadtime'
p3501
F1412311801.64
sS'port'
p3502
I8800
sS'tank_id'
p3503
I1
sa(dp3504
S'name'
p3505
S'GUEST4'
p3506
sS'ipaddr'
p3507
V192.168.1.39
p3508
sS'session_id'
p3509
I27165172
sS'id'
p3510
NsS'score'
p3511
I1160
sS'deadtime'
p3512
F1412311851.94
sS'port'
p3513
I8800
sS'tank_id'
p3514
I0
saaI01
asV35735195
p3515
(lp3516
S'._._._._._._._._._._.\n| ._. ._. | ._. ._. |\n| | ._. | | |     | |\n|   |_. |_.         |\n| |_._.   | |_. ._| |\n|_._. |_._|_._. ._._|\n| ._._._._|         |\n| | . ._. |         |\n| | | | | .         |\n|_._|_. | |         |\n|_._._._._|_._._._._|'
p3517
a(lp3518
(dp3519
S'name'
p3520
NsS'ipaddr'
p3521
V127.0.0.1
p3522
sS'session_id'
p3523
I78896334
sS'port'
p3524
I5001
sS'score'
p3525
I0
sS'id'
p3526
NsS'tank_id'
p3527
I2
sa(dp3528
S'name'
p3529
NsS'ipaddr'
p3530
V127.0.0.1
p3531
sS'session_id'
p3532
I70415168
sS'port'
p3533
I5002
sS'score'
p3534
I270
sS'id'
p3535
NsS'tank_id'
p3536
I2
saasV71019178
p3537
(lp3538
S'._._._._._._._._._._.\n|                   |\n|   ._._._._._._.   |\n|   |           |   |\n|   |   . ._.       |\n|   |   |   |   .   |\n|       |_. |   |   |\n|   .           |   |\n|   |_._._._._._|   |\n|                   |\n|_._._._._._._._._._|'
p3539
a(lp3540
(dp3541
S'name'
p3542
S'GUEST2'
p3543
sS'ipaddr'
p3544
V127.0.0.1
p3545
sS'session_id'
p3546
I3852520
sS'port'
p3547
I5001
sS'score'
p3548
I0
sS'deadtime'
p3549
F2147483647.0
sS'id'
p3550
NsS'tank_id'
p3551
I2
sa(dp3552
S'name'
p3553
S'GUEST1'
p3554
sS'ipaddr'
p3555
V127.0.0.1
p3556
sS'session_id'
p3557
I32228074
sS'id'
p3558
NsS'score'
p3559
I0
sS'deadtime'
p3560
F2147483647.0
sS'port'
p3561
I5002
sS'tank_id'
p3562
I2
saaI01
asV64583981
p3563
(lp3564
S'._._._._._._._._._._.\n| ._. ._. | ._. ._. |\n| | ._. | | |     | |\n|   |_. |_.         |\n| |_._.   | |_. ._| |\n|_._. |_._|_._. ._._|\n| ._._._._|         |\n| | . ._. |         |\n| | | | | .         |\n|_._|_. | |         |\n|_._._._._|_._._._._|'
p3565
a(lp3566
(dp3567
S'name'
p3568
S'GUEST5'
p3569
sS'ipaddr'
p3570
V192.168.1.38
p3571
sS'session_id'
p3572
I5491342
sS'port'
p3573
I8800
sS'score'
p3574
I280
sS'deadtime'
p3575
F1412309821.59
sS'id'
p3576
NsS'tank_id'
p3577
I0
sa(dp3578
S'name'
p3579
S'GUEST1'
p3580
sS'ipaddr'
p3581
V192.168.1.37
p3582
sS'session_id'
p3583
I95206417
sS'id'
p3584
NsS'score'
p3585
I1240
sS'deadtime'
p3586
F1412309867.31
sS'port'
p3587
I8800
sS'tank_id'
p3588
I2
sa(dp3589
S'name'
p3590
S'GUEST2'
p3591
sS'ipaddr'
p3592
V192.168.1.36
p3593
sS'session_id'
p3594
I42197112
sS'id'
p3595
NsS'score'
p3596
I2560
sS'deadtime'
p3597
F1412309905.04
sS'port'
p3598
I8800
sS'tank_id'
p3599
I2
sa(dp3600
S'name'
p3601
S'GUEST3'
p3602
sS'ipaddr'
p3603
V192.168.1.39
p3604
sS'session_id'
p3605
I60062310
sS'port'
p3606
I8800
sS'score'
p3607
I1440
sS'deadtime'
p3608
F1412309863.04
sS'id'
p3609
NsS'tank_id'
p3610
I2
sa(dp3611
S'name'
p3612
S'GUEST4'
p3613
sS'ipaddr'
p3614
V192.168.1.35
p3615
sS'session_id'
p3616
I85465262
sS'port'
p3617
I8800
sS'score'
p3618
I880
sS'deadtime'
p3619
F2147483647.0
sS'id'
p3620
NsS'tank_id'
p3621
I1
saaI01
asV58045004
p3622
(lp3623
S'._._._._._._._._._._.\n| . . ._.   |     . |\n|_| |       | ._._| |\n| ._| ._.   ._|   | |\n| ._._._._._| . ._| |\n| . | ._._._._| . | |\n| | | |   .     | . |\n| | | |   |   ._. | |\n| | | |   |   ._|   |\n| ._| |_. |_._._._. |\n|_._._._._._._._._._|'
p3624
a(lp3625
(dp3626
S'name'
p3627
NsS'ipaddr'
p3628
V127.0.0.1
p3629
sS'session_id'
p3630
I19385181
sS'port'
p3631
I5001
sS'score'
p3632
I0
sS'id'
p3633
NsS'tank_id'
p3634
I2
sa(dp3635
S'name'
p3636
NsS'ipaddr'
p3637
V127.0.0.1
p3638
sS'session_id'
p3639
I71686988
sS'port'
p3640
I5002
sS'score'
p3641
I0
sS'id'
p3642
NsS'tank_id'
p3643
I2
sa(dp3644
S'name'
p3645
NsS'ipaddr'
p3646
V127.0.0.1
p3647
sS'session_id'
p3648
I76434848
sS'port'
p3649
I5003
sS'score'
p3650
I585
sS'id'
p3651
NsS'tank_id'
p3652
I2
saasV5172837
p3653
(lp3654
S'._._._._._._._._._._.\n| . . . .   . . . . |\n| | | | |   | | | | |\n| | | | |   | | | | |\n| ._._._.   ._._._. |\n|_._. .       . ._._|\n|   | | .   . | |   |\n|   | | |   | | |   |\n|   | | |_._| | |   |\n|   | |       | |   |\n|_._._|_._._._|_._._|'
p3655
a(lp3656
(dp3657
S'name'
p3658
S'GUEST2'
p3659
sS'ipaddr'
p3660
V127.0.0.1
p3661
sS'session_id'
p3662
I18834039
sS'port'
p3663
I5001
sS'score'
p3664
I-1
sS'id'
p3665
NsS'tank_id'
p3666
I2
sa(dp3667
S'name'
p3668
S'GUEST1'
p3669
sS'ipaddr'
p3670
V127.0.0.1
p3671
sS'session_id'
p3672
I5038251
sS'port'
p3673
I5002
sS'score'
p3674
I-1
sS'id'
p3675
NsS'tank_id'
p3676
I2
saaI00
asV43704791
p3677
(lp3678
S'._._._._._._._._._._.\n| .       |       . |\n| |_._.   |   ._._| |\n| | ._.   |   ._. | |\n| | | ._.   ._. | | |\n| |   |       |   | |\n| | ._. ._._. ._. | |\n| | |   | . |   | | |\n| |_._.   |   ._._| |\n| |       |       | |\n|_._._._._|_._._._._|'
p3679
a(lp3680
(dp3681
S'name'
p3682
S'GUEST5'
p3683
sS'ipaddr'
p3684
V192.168.1.35
p3685
sS'session_id'
p3686
I39984810
sS'port'
p3687
I8800
sS'score'
p3688
I135
sS'deadtime'
p3689
F1412310103.1
sS'id'
p3690
NsS'tank_id'
p3691
I2
sa(dp3692
S'name'
p3693
S'GUEST1'
p3694
sS'ipaddr'
p3695
V192.168.1.39
p3696
sS'session_id'
p3697
I3755231
sS'id'
p3698
NsS'score'
p3699
I765
sS'deadtime'
p3700
F1412310123.93
sS'port'
p3701
I8800
sS'tank_id'
p3702
I2
sa(dp3703
S'name'
p3704
S'GUEST2'
p3705
sS'ipaddr'
p3706
V192.168.1.36
p3707
sS'session_id'
p3708
I34122027
sS'port'
p3709
I8800
sS'score'
p3710
I300
sS'deadtime'
p3711
F1412310101.31
sS'id'
p3712
NsS'tank_id'
p3713
I2
sa(dp3714
S'name'
p3715
S'GUEST3'
p3716
sS'ipaddr'
p3717
V192.168.1.37
p3718
sS'session_id'
p3719
I236857
sS'id'
p3720
NsS'score'
p3721
I540
sS'deadtime'
p3722
F1412310191.37
sS'port'
p3723
I8800
sS'tank_id'
p3724
I0
sa(dp3725
S'name'
p3726
S'GUEST4'
p3727
sS'ipaddr'
p3728
V192.168.1.38
p3729
sS'session_id'
p3730
I33374319
sS'id'
p3731
NsS'score'
p3732
I240
sS'deadtime'
p3733
F2147483647.0
sS'port'
p3734
I8800
sS'tank_id'
p3735
I2
saaI01
asV50086205
p3736
(lp3737
S'._._._._._._._._._._.\n|   |_. ._._. ._|   |\n|_.   |_.   ._|   ._|\n| |_.   |   |   ._| |\n| . |   ._._.   | . |\n| |               | |\n| | .   ._._.   . | |\n| ._|   .   .   |_. |\n|_|   ._|   |_.   |_|\n|   ._| ._._. |_.   |\n|_._|_._._._._._|_._|'
p3738
a(lp3739
(dp3740
S'name'
p3741
NsS'ipaddr'
p3742
V192.168.1.38
p3743
sS'session_id'
p3744
I51987697
sS'port'
p3745
I8800
sS'score'
p3746
I105
sS'id'
p3747
NsS'tank_id'
p3748
I2
sa(dp3749
S'name'
p3750
NsS'ipaddr'
p3751
V192.168.1.37
p3752
sS'session_id'
p3753
I70998567
sS'port'
p3754
I8800
sS'score'
p3755
I0
sS'id'
p3756
NsS'tank_id'
p3757
I2
saassS'wait_for_start'
p3758
I01
sS'start_time'
p3759
F1412314470.853254
sS'waitlist'
p3760
g2997
sS'battle_id'
p3761
I63405612
s.