(dp0
S'wait_for_start'
p1
I01
sS'waitlist'
p2
(lp3
(dp4
S'alivetime'
p5
F80.0
sS'name'
p6
S'GUEST3'
p7
sS'ipaddr'
p8
V127.0.0.1
p9
sS'session_id'
p10
I87610498
sS'score'
p11
I330
sS'port'
p12
I5002
sS'tank_id'
p13
I4
sa(dp14
S'alivetime'
p15
F137.0
sS'name'
p16
S'GUEST1'
p17
sS'ipaddr'
p18
V127.0.0.1
p19
sS'session_id'
p20
I73763832
sS'score'
p21
I0
sS'port'
p22
I5001
sS'tank_id'
p23
I2
sa(dp24
S'alivetime'
p25
F137.0
sS'name'
p26
S'GUEST2'
p27
sS'ipaddr'
p28
V127.0.0.1
p29
sS'session_id'
p30
I91214410
sS'score'
p31
I750
sS'port'
p32
I5003
sS'tank_id'
p33
I5
sasS'battlelist'
p34
(dp35
V14305517
p36
(lp37
S'._._._._._._._._._._.\n| . | ._._._._. | . |\n| | ._._._._._._. | |\n| | ._._. . ._._. | |\n|_| |   . | .   | |_|\n| ._| ._| | |_. |_. |\n|_._._._. | ._._._._|\n|_. . | ._.   | ._. |\n| ._| | ._.   | | | |\n| | . |_.   ._|     |\n|_._|_._._._._._|_|_|'
p38
a(lp39
(dp40
S'alivetime'
p41
F109.0
sS'name'
p42
S'GUEST2'
p43
sS'ipaddr'
p44
V192.168.3.4
p45
sS'session_id'
p46
I65596364
sS'port'
p47
I8800
sS'score'
p48
I350
sS'id'
p49
NsS'tank_id'
p50
I4
sa(dp51
S'alivetime'
p52
F109.0
sS'name'
p53
S'GUEST1'
p54
sS'ipaddr'
p55
V192.168.3.151
p56
sS'session_id'
p57
I1328768
sS'id'
p58
NsS'score'
p59
I75
sS'port'
p60
I8800
sS'tank_id'
p61
I5
saaI01
asV76376791
p62
(lp63
S'._._._._._._._._._._.\n|       |   . ._._. |\n|_.   ._|_._| | . | |\n| . . . |   . | | | |\n| | | | ._._|_._|_. |\n| |_._| .   | .   . |\n|_.   ._|_._. |_._| |\n| . . . . . | |   | |\n| | |_|_| | |_. . ._|\n| |_. | ._| | ._|_. |\n|_._._._._._._._._._|'
p64
a(lp65
(dp66
S'alivetime'
p67
F4.0
sS'name'
p68
S'GUEST0'
p69
sS'ipaddr'
p70
V127.0.0.1
p71
sS'session_id'
p72
I77656253
sS'id'
p73
NsS'score'
p74
I0
sS'port'
p75
I5001
sS'tank_id'
p76
I5
sa(dp77
S'alivetime'
p78
F10.0
sS'name'
p79
S'GUEST1'
p80
sS'ipaddr'
p81
V192.168.3.151
p82
sS'session_id'
p83
I39049467
sS'id'
p84
NsS'score'
p85
I0
sS'port'
p86
I8800
sS'tank_id'
p87
I3
saaI01
asV43568793
p88
(lp89
S'._._._._._._._._._._.\n|   |  _._  |  _._  |\n|   |       |       |\n|   |       |       | \n|   |_.   ._|_.   ._|\n|   |   .   |   .   |\n|_.   ._|_.   ._|   |\n|       |       |   |\n|       |       |   |\n|  _._  |  _._  |   |\n|_._._._|_._._._|_._|'
p90
a(lp91
(dp92
S'alivetime'
p93
F47.0
sS'name'
p94
S'GUEST2'
p95
sS'ipaddr'
p96
V127.0.0.1
p97
sS'session_id'
p98
I49944215
sS'id'
p99
NsS'score'
p100
I620
sS'port'
p101
I5001
sS'tank_id'
p102
I1
sa(dp103
S'alivetime'
p104
F47.0
sS'name'
p105
S'GUEST1'
p106
sS'ipaddr'
p107
V127.0.0.1
p108
sS'session_id'
p109
I17334367
sS'port'
p110
I5002
sS'score'
p111
I0
sS'id'
p112
NsS'tank_id'
p113
I0
saaI01
asV67851047
p114
(lp115
S'._._._._._._._._._._.\n| . | ._._._._. | . |\n| | ._._._._._._. | |\n| | ._._. . ._._. | |\n|_| |   . | .   | |_|\n| ._| ._| | |_. |_. |\n|_._._._. | ._._._._|\n|_. . | ._.   | ._. |\n| ._| | ._.   | | | |\n| | . |_.   ._|     |\n|_._|_._._._._._|_|_|'
p116
a(lp117
(dp118
S'alivetime'
p119
F60.0
sS'name'
p120
S'GUEST2'
p121
sS'ipaddr'
p122
V192.168.3.4
p123
sS'session_id'
p124
I47568512
sS'id'
p125
NsS'score'
p126
I270
sS'port'
p127
I8800
sS'tank_id'
p128
I1
sa(dp129
S'alivetime'
p130
F60.0
sS'name'
p131
S'GUEST1'
p132
sS'ipaddr'
p133
V192.168.3.151
p134
sS'session_id'
p135
I46212092
sS'port'
p136
I8800
sS'score'
p137
I0
sS'id'
p138
NsS'tank_id'
p139
I4
saaI01
asV81554064
p140
(lp141
S'._._._._._._._._._._.\n|   ._._.   ._._.   |\n|     |     |_. |   |\n|     |     |   |   |\n|     |     |   |   |\n|                   |\n|   ._. .   . ._.   |\n|   | | |   |_|     |\n|   | | |   |_.     |\n|   | |_|   | |_.   |\n|_._._._._._._._._._|'
p142
a(lp143
(dp144
S'alivetime'
p145
F4.0
sS'name'
p146
S'GUEST2'
p147
sS'ipaddr'
p148
V127.0.0.1
p149
sS'session_id'
p150
I6874219
sS'id'
p151
NsS'score'
p152
I0
sS'port'
p153
I5001
sS'tank_id'
p154
I1
sa(dp155
S'alivetime'
p156
F4.0
sS'name'
p157
S'GUEST1'
p158
sS'ipaddr'
p159
V127.0.0.1
p160
sS'session_id'
p161
I55203930
sS'port'
p162
I5002
sS'score'
p163
I0
sS'id'
p164
NsS'tank_id'
p165
I2
saaI01
asV60729497
p166
(lp167
S'._._._._._._._._._._.\n|       |   . ._._. |\n|_.   ._|_._| | . | |\n| . . . |   . | | | |\n| | | | ._._|_._|_. |\n| |_._| .   | .   . |\n|_.   ._|_._. |_._| |\n| . . . . . | |   | |\n| | |_|_| | |_. . ._|\n| |_. | ._| | ._|_. |\n|_._._._._._._._._._|'
p168
a(lp169
(dp170
S'alivetime'
p171
F48.0
sS'name'
p172
S'GUEST2'
p173
sS'ipaddr'
p174
V192.168.3.4
p175
sS'session_id'
p176
I64772376
sS'id'
p177
NsS'score'
p178
I0
sS'port'
p179
I8800
sS'tank_id'
p180
I1
sa(dp181
S'alivetime'
p182
F48.0
sS'name'
p183
S'GUEST1'
p184
sS'ipaddr'
p185
V192.168.3.151
p186
sS'session_id'
p187
I80871322
sS'port'
p188
I8800
sS'score'
p189
I280
sS'id'
p190
NsS'tank_id'
p191
I2
saaI01
asV840757
p192
(lp193
S'._._._._._._._._._._.\n|_. ._. ._. ._. ._. |\n| ._._._. ._._._. ._|\n|_. ._._._. ._._._. |\n| ._. ._. ._. ._. ._|\n|_.   ._._._._.   ._|\n|_. ._._.   ._._. ._|\n| ._._._.   ._._._. |\n|_.   ._._._._.   ._|\n|   ._._.   ._._.   |\n|_._._._._._._._._._|'
p194
a(lp195
(dp196
S'alivetime'
p197
F39.0
sS'name'
p198
S'GUEST2'
p199
sS'ipaddr'
p200
V127.0.0.1
p201
sS'session_id'
p202
I22735155
sS'id'
p203
NsS'score'
p204
I760
sS'port'
p205
I5002
sS'tank_id'
p206
I1
sa(dp207
S'alivetime'
p208
F39.0
sS'name'
p209
S'GUEST1'
p210
sS'ipaddr'
p211
V127.0.0.1
p212
sS'session_id'
p213
I42454216
sS'port'
p214
I5001
sS'score'
p215
I0
sS'id'
p216
NsS'tank_id'
p217
I2
saaI01
asV56102104
p218
(lp219
S'._._._._._._._._._._.\n|   ._._.   ._._.   |\n|     |     |_. |   |\n|     |     |   |   |\n|     |     |   |   |\n|                   |\n|   ._. .   . ._.   |\n|   | | |   |_|     |\n|   | | |   |_.     |\n|   | |_|   | |_.   |\n|_._._._._._._._._._|'
p220
a(lp221
(dp222
S'alivetime'
p223
F38.0
sS'name'
p224
S'GUEST2'
p225
sS'ipaddr'
p226
V127.0.0.1
p227
sS'session_id'
p228
I73177224
sS'port'
p229
I5002
sS'score'
p230
I640
sS'id'
p231
NsS'tank_id'
p232
I1
sa(dp233
S'alivetime'
p234
F38.0
sS'name'
p235
S'GUEST1'
p236
sS'ipaddr'
p237
V127.0.0.1
p238
sS'session_id'
p239
I58641152
sS'id'
p240
NsS'score'
p241
I0
sS'port'
p242
I5001
sS'tank_id'
p243
I2
saaI01
asV10223993
p244
(lp245
S'._._._._._._._._._._.\n|   |_. ._._. ._|   |\n|_.   |_.   ._|   ._|\n| |_.   |   |   ._| |\n| . |   ._._.   | . |\n| |               | |\n| | .   ._._.   . | |\n| ._|   .   .   |_. |\n|_|   ._|   |_.   |_|\n|   ._| ._._. |_.   |\n|_._|_._._._._._|_._|'
p246
a(lp247
(dp248
S'alivetime'
p249
F184.0
sS'name'
p250
S'GUEST2'
p251
sS'ipaddr'
p252
V127.0.0.1
p253
sS'session_id'
p254
I88949457
sS'id'
p255
NsS'score'
p256
I160
sS'port'
p257
I5002
sS'tank_id'
p258
I0
sa(dp259
S'alivetime'
p260
F184.0
sS'name'
p261
S'GUEST1'
p262
sS'ipaddr'
p263
V127.0.0.1
p264
sS'session_id'
p265
I77211795
sS'port'
p266
I5001
sS'score'
p267
I0
sS'id'
p268
NsS'tank_id'
p269
I0
saaI01
asV9433767
p270
(lp271
S'._._._._._._._._._._.\n| . . . .   . . . . |\n| | | | |   | | | | |\n| | | | |   | | | | |\n| ._._._.   ._._._. |\n|_._. .       . ._._|\n|   | | .   . | |   |\n|   | | |   | | |   |\n|   | | |_._| | |   |\n|   | |       | |   |\n|_._._|_._._._|_._._|'
p272
a(lp273
(dp274
S'alivetime'
p275
F55.0
sS'name'
p276
S'GUEST2'
p277
sS'ipaddr'
p278
V192.168.3.4
p279
sS'session_id'
p280
I76435480
sS'id'
p281
NsS'score'
p282
I480
sS'port'
p283
I8800
sS'tank_id'
p284
I1
sa(dp285
S'alivetime'
p286
F55.0
sS'name'
p287
S'GUEST1'
p288
sS'ipaddr'
p289
V192.168.3.151
p290
sS'session_id'
p291
I99404591
sS'port'
p292
I8800
sS'score'
p293
I180
sS'id'
p294
NsS'tank_id'
p295
I0
saaI01
asV73503094
p296
(lp297
S'._._._._._._._._._._.\n| ._._._._.     ._. |\n| |   | |     . | | |\n| |_. ._.   ._|_|   |\n| |_. |     | |   . |\n| |     .   |   ._| |\n|     . |     ._| . |\n|   ._|_|   ._| . | |\n| . | |   ._| ._| | |\n| |_|   ._| ._._._| |\n|_._._._._._._._._._|'
p298
a(lp299
(dp300
S'alivetime'
p301
F25.0
sS'name'
p302
S'GUEST2'
p303
sS'ipaddr'
p304
V192.168.3.4
p305
sS'session_id'
p306
I3563905
sS'id'
p307
NsS'score'
p308
I760
sS'port'
p309
I8800
sS'tank_id'
p310
I1
sa(dp311
S'alivetime'
p312
F25.0
sS'name'
p313
S'GUEST1'
p314
sS'ipaddr'
p315
V192.168.3.151
p316
sS'session_id'
p317
I51418590
sS'port'
p318
I8800
sS'score'
p319
I0
sS'id'
p320
NsS'tank_id'
p321
I2
saaI01
asV43432380
p322
(lp323
S'._._._._._._._._._._.\n| . . ._. . ._._. . |\n| | | | . |   ._. | |\n| ._|_._| | ._|   | |\n| ._._._._.   ._._| |\n| . | . ._._._| ._._|\n| | | | | ._. | |   |\n| . . . . ._|   |_. |\n| | | | | | ._._| . |\n| ._| |_. |_._._._| |\n|_._._._._._._._._._|'
p324
a(lp325
(dp326
S'alivetime'
p327
F37.0
sS'name'
p328
S'GUEST2'
p329
sS'ipaddr'
p330
V192.168.3.4
p331
sS'session_id'
p332
I15259504
sS'id'
p333
NsS'score'
p334
I285
sS'port'
p335
I8800
sS'tank_id'
p336
I1
sa(dp337
S'alivetime'
p338
F37.0
sS'name'
p339
S'GUEST1'
p340
sS'ipaddr'
p341
V192.168.3.151
p342
sS'session_id'
p343
I93051798
sS'port'
p344
I8800
sS'score'
p345
I30
sS'id'
p346
NsS'tank_id'
p347
I3
saaI01
asV18684861
p348
(lp349
S'._._._._._._._._._._.\n|   ._._.   ._._.   |\n|     |     |_. |   |\n|     |     |   |   |\n|     |     |   |   |\n|                   |\n|   ._. .   . ._.   |\n|   | | |   |_|     |\n|   | | |   |_.     |\n|   | |_|   | |_.   |\n|_._._._._._._._._._|'
p350
a(lp351
(dp352
S'alivetime'
p353
F43.0
sS'name'
p354
S'GUEST2'
p355
sS'ipaddr'
p356
V192.168.3.4
p357
sS'session_id'
p358
I31027400
sS'id'
p359
NsS'score'
p360
I100
sS'port'
p361
I8800
sS'tank_id'
p362
I2
sa(dp363
S'alivetime'
p364
F43.0
sS'name'
p365
S'GUEST1'
p366
sS'ipaddr'
p367
V192.168.3.151
p368
sS'session_id'
p369
I13635936
sS'port'
p370
I8800
sS'score'
p371
I400
sS'id'
p372
NsS'tank_id'
p373
I1
saaI01
asV71322774
p374
(lp375
S'._._._._._._._._._._.\n|   |_. ._._. ._|   |\n|_.   |_.   ._|   ._|\n| |_.   |   |   ._| |\n| . |   ._._.   | . |\n| |               | |\n| | .   ._._.   . | |\n| ._|   .   .   |_. |\n|_|   ._|   |_.   |_|\n|   ._| ._._. |_.   |\n|_._|_._._._._._|_._|'
p376
ag3
aI01
asV96528925
p377
(lp378
S'._._._._._._._._._._.\n| ._._._.   ._._._. |\n| | ._.       ._. | |\n| | |_.       ._| | |\n| |_._._.   ._._._| |\n|                   |\n| ._._._.   ._._._. |\n| |     |   |     | |\n| |   ._|   |_.   | |\n| |_._._.   ._._._| |\n|_._._._._._._._._._|'
p379
a(lp380
(dp381
S'alivetime'
p382
F184.0
sS'name'
p383
S'GUEST2'
p384
sS'ipaddr'
p385
V127.0.0.1
p386
sS'session_id'
p387
I75878500
sS'id'
p388
NsS'score'
p389
I160
sS'port'
p390
I5002
sS'tank_id'
p391
I1
sa(dp392
S'alivetime'
p393
F184.0
sS'name'
p394
S'GUEST1'
p395
sS'ipaddr'
p396
V127.0.0.1
p397
sS'session_id'
p398
I23885923
sS'port'
p399
I5001
sS'score'
p400
I0
sS'id'
p401
NsS'tank_id'
p402
I2
saaI01
asV54854852
p403
(lp404
S'._._._._._._._._._._.\n|   |_. ._._. ._|   |\n|_.   |_.   ._|   ._|\n| |_.   |   |   ._| |\n| . |   ._._.   | . |\n| |               | |\n| | .   ._._.   . | |\n| ._|   .   .   |_. |\n|_|   ._|   |_.   |_|\n|   ._| ._._. |_.   |\n|_._|_._._._._._|_._|'
p405
a(lp406
(dp407
S'alivetime'
p408
F4.0
sS'name'
p409
S'GUEST2'
p410
sS'ipaddr'
p411
V127.0.0.1
p412
sS'session_id'
p413
I90943997
sS'port'
p414
I5001
sS'score'
p415
I0
sS'id'
p416
NsS'tank_id'
p417
I4
sa(dp418
S'alivetime'
p419
F22.0
sS'name'
p420
S'GUEST1'
p421
sS'ipaddr'
p422
V192.168.3.151
p423
sS'session_id'
p424
I92003357
sS'port'
p425
I8800
sS'score'
p426
I0
sS'id'
p427
NsS'tank_id'
p428
I4
saaI01
asV72948682
p429
(lp430
S'._._._._._._._._._._.\n|   ._._.   ._._.   |\n|     |     |_. |   |\n|     |     |   |   |\n|     |     |   |   |\n|                   |\n|   ._. .   . ._.   |\n|   | | |   |_|     |\n|   | | |   |_.     |\n|   | |_|   | |_.   |\n|_._._._._._._._._._|'
p431
a(lp432
(dp433
S'alivetime'
p434
F85.0
sS'name'
p435
S'GUEST2'
p436
sS'ipaddr'
p437
V192.168.3.151
p438
sS'session_id'
p439
I83603094
sS'port'
p440
I8800
sS'score'
p441
I320
sS'id'
p442
NsS'tank_id'
p443
I3
sa(dp444
S'alivetime'
p445
F85.0
sS'name'
p446
S'GUEST1'
p447
sS'ipaddr'
p448
V192.168.3.4
p449
sS'session_id'
p450
I72426274
sS'id'
p451
NsS'score'
p452
I360
sS'port'
p453
I8800
sS'tank_id'
p454
I2
saaI01
asV50026276
p455
(lp456
S'._._._._._._._._._._.\n| ._._._._.     ._. |\n| |   | |     . | | |\n| |_. ._.   ._|_|   |\n| |_. |     | |   . |\n| |     .   |   ._| |\n|     . |     ._| . |\n|   ._|_|   ._| . | |\n| . | |   ._| ._| | |\n| |_|   ._| ._._._| |\n|_._._._._._._._._._|'
p457
a(lp458
(dp459
S'alivetime'
p460
F125.0
sS'name'
p461
S'GUEST2'
p462
sS'ipaddr'
p463
V127.0.0.1
p464
sS'session_id'
p465
I98063068
sS'port'
p466
I5003
sS'score'
p467
I45
sS'id'
p468
NsS'tank_id'
p469
I2
sa(dp470
S'name'
p471
S'GUEST1'
p472
sS'ipaddr'
p473
V127.0.0.1
p474
sS'session_id'
p475
I43366899
sS'port'
p476
I5001
sS'score'
p477
I-1
sS'id'
p478
NsS'tank_id'
p479
I1
sa(dp480
S'name'
p481
S'GUEST2'
p482
sS'ipaddr'
p483
V127.0.0.1
p484
sS'session_id'
p485
I56548189
sS'port'
p486
I5002
sS'score'
p487
I-1
sS'id'
p488
NsS'tank_id'
p489
I3
saaI00
asV50897250
p490
(lp491
S'._._._._._._._._._._.\n| .               . |\n| |   ._.   ._.   | |\n| |   |       |   | |\n| |               | |\n|_._._._. . ._._._._|\n| ._. | ._| | ._._. |\n|_. |_._. | | | . | |\n| ._| ._._|_._._| | |\n| | . | . | ._._._| |\n|_._|_._|_._._._._._|'
p492
a(lp493
(dp494
S'alivetime'
p495
F75.0
sS'name'
p496
S'GUEST2'
p497
sS'ipaddr'
p498
V192.168.3.151
p499
sS'session_id'
p500
I60160460
sS'port'
p501
I8800
sS'score'
p502
I680
sS'id'
p503
NsS'tank_id'
p504
I3
sa(dp505
S'alivetime'
p506
F75.0
sS'name'
p507
S'GUEST1'
p508
sS'ipaddr'
p509
V192.168.3.4
p510
sS'session_id'
p511
I20275935
sS'id'
p512
NsS'score'
p513
I200
sS'port'
p514
I8800
sS'tank_id'
p515
I2
saaI01
assS'start_time'
p516
F1428683706.629522
sS'battles'
p517
I19
sS'connection'
p518
I40
sS'battle_id'
p519
I71322774
s.