(dp0
S'battlelist'
p1
(dp2
V91972490
p3
(lp4
S'._._._._._._._._._._.\n|                   |\n| ._. ._.   ._. ._. |\n| | | | |   | | | | |\n|                   |\n|                   |\n| ._._._._._._._._. |\n|     |       |     |\n|     |   .   |     |\n|         |         |\n|_._._._._|_._._._._|'
p5
a(lp6
(dp7
S'name'
p8
NsS'ipaddr'
p9
V127.0.0.1
p10
sS'session_id'
p11
I98755219
sS'port'
p12
I5001
sS'score'
p13
I0
sS'id'
p14
NsS'tank_id'
p15
I2
sa(dp16
S'name'
p17
NsS'ipaddr'
p18
V127.0.0.1
p19
sS'session_id'
p20
I50375727
sS'port'
p21
I5002
sS'score'
p22
I-1
sS'id'
p23
NsS'tank_id'
p24
I2
sa(dp25
S'name'
p26
NsS'ipaddr'
p27
V127.0.0.1
p28
sS'session_id'
p29
I8045340
sS'port'
p30
I5003
sS'score'
p31
I-1
sS'id'
p32
NsS'tank_id'
p33
I2
saasV22431771
p34
(lp35
S'._._._._._._._._._._.\n|   |_. ._._. ._|   |\n|_.   |_.   ._|   ._|\n| |_.   |   |   ._| |\n| . |   ._._.   | . |\n| |               | |\n| | .   ._._.   . | |\n| ._|   .   .   |_. |\n|_|   ._|   |_.   |_|\n|   ._| ._._. |_.   |\n|_._|_._._._._._|_._|'
p36
a(lp37
(dp38
S'name'
p39
NsS'ipaddr'
p40
V127.0.0.1
p41
sS'session_id'
p42
I70355353
sS'port'
p43
I5001
sS'score'
p44
I0
sS'id'
p45
NsS'tank_id'
p46
I2
sa(dp47
S'name'
p48
NsS'ipaddr'
p49
V127.0.0.1
p50
sS'session_id'
p51
I1825773
sS'port'
p52
I5002
sS'score'
p53
I0
sS'id'
p54
NsS'tank_id'
p55
I2
sa(dp56
S'name'
p57
NsS'ipaddr'
p58
V127.0.0.1
p59
sS'session_id'
p60
I44129651
sS'port'
p61
I5003
sS'score'
p62
I405
sS'id'
p63
NsS'tank_id'
p64
I2
saasV67903806
p65
(lp66
S'._._._._._._._._._._.\n| ._._._._.     ._. |\n| |   | |     . | | |\n| |_. ._.   ._|_|   |\n| |_. |     | |   . |\n| |     .   |   ._| |\n|     . |     ._| . |\n|   ._|_|   ._| . | |\n| . | |   ._| ._| | |\n| |_|   ._| ._._._| |\n|_._._._._._._._._._|'
p67
a(lp68
(dp69
S'name'
p70
NsS'ipaddr'
p71
V127.0.0.1
p72
sS'session_id'
p73
I73441314
sS'port'
p74
I5001
sS'score'
p75
I-1
sS'id'
p76
NsS'tank_id'
p77
I2
sa(dp78
S'name'
p79
NsS'ipaddr'
p80
V127.0.0.1
p81
sS'session_id'
p82
I94656473
sS'port'
p83
I5002
sS'score'
p84
I-1
sS'id'
p85
NsS'tank_id'
p86
I2
sa(dp87
S'name'
p88
NsS'ipaddr'
p89
V127.0.0.1
p90
sS'session_id'
p91
I15989341
sS'port'
p92
I5003
sS'score'
p93
I-1
sS'id'
p94
NsS'tank_id'
p95
I2
saasV71120044
p96
(lp97
S'._._._._._._._._._._.\n| . . ._.   |     . |\n|_| |       | ._._| |\n| ._| ._.   ._|   | |\n| ._._._._._| . ._| |\n| . | ._._._._| . | |\n| | | |   .     | . |\n| | | |   |   ._. | |\n| | | |   |   ._|   |\n| ._| |_. |_._._._. |\n|_._._._._._._._._._|'
p98
a(lp99
(dp100
S'name'
p101
NsS'ipaddr'
p102
V127.0.0.1
p103
sS'session_id'
p104
I82963956
sS'port'
p105
I5001
sS'score'
p106
I0
sS'id'
p107
NsS'tank_id'
p108
I2
sa(dp109
S'name'
p110
NsS'ipaddr'
p111
V127.0.0.1
p112
sS'session_id'
p113
I51277323
sS'port'
p114
I5002
sS'score'
p115
I0
sS'id'
p116
NsS'tank_id'
p117
I2
saasV25017549
p118
(lp119
S'._._._._._._._._._._.\n|                   |\n|   ._._._._._._.   |\n|   |           |   |\n|   |   . ._.       |\n|   |   |   |   .   |\n|       |_. |   |   |\n|   .           |   |\n|   |_._._._._._|   |\n|                   |\n|_._._._._._._._._._|'
p120
a(lp121
(dp122
S'name'
p123
NsS'ipaddr'
p124
V127.0.0.1
p125
sS'session_id'
p126
I70815129
sS'port'
p127
I5002
sS'score'
p128
I-1
sS'id'
p129
NsS'tank_id'
p130
I2
sa(dp131
S'name'
p132
S'USER'
p133
sS'ipaddr'
p134
V127.0.0.1
p135
sS'session_id'
p136
I14220821
sS'port'
p137
I5001
sS'score'
p138
I0
sS'id'
p139
V1000
p140
sS'tank_id'
p141
I2
saasV8725871
p142
(lp143
S'._._._._._._._._._._.\n| ._. ._. | ._. ._. |\n| | ._. | | |     | |\n|   |_. |_.         |\n| |_._.   | |_. ._| |\n|_._. |_._|_._. ._._|\n| ._._._._|         |\n| | . ._. |         |\n| | | | | .         |\n|_._|_. | |         |\n|_._._._._|_._._._._|'
p144
a(lp145
(dp146
S'name'
p147
S'USER'
p148
sS'ipaddr'
p149
V127.0.0.1
p150
sS'session_id'
p151
I43166576
sS'port'
p152
I5001
sS'score'
p153
I270
sS'id'
p154
V1000
p155
sS'tank_id'
p156
I2
sa(dp157
S'name'
p158
NsS'ipaddr'
p159
V127.0.0.1
p160
sS'session_id'
p161
I29326085
sS'port'
p162
I5002
sS'score'
p163
I120
sS'id'
p164
NsS'tank_id'
p165
I2
saasV7225380
p166
(lp167
S'._._._._._._._._._._.\n| . | ._._._._. | . |\n| | ._._._._._._. | |\n| | ._._. . ._._. | |\n|_| |   . | .   | |_|\n| ._| ._| | |_. |_. |\n|_._._._. | ._._._._|\n|_. . |  ._.  | ._. |\n| ._| |  ._.  | | | |\n| | . |_.   ._|     |\n|_._|_._._._._._|_|_|'
p168
a(lp169
(dp170
S'name'
p171
NsS'ipaddr'
p172
V127.0.0.1
p173
sS'session_id'
p174
I35189938
sS'port'
p175
I5001
sS'score'
p176
I-1
sS'id'
p177
NsS'tank_id'
p178
I2
sa(dp179
S'name'
p180
NsS'ipaddr'
p181
V127.0.0.1
p182
sS'session_id'
p183
I65603867
sS'port'
p184
I5002
sS'score'
p185
I-1
sS'id'
p186
NsS'tank_id'
p187
I2
saasV45807265
p188
(lp189
S'._._._._._._._._._._.\n| . . ._.   |     . |\n|_| |       | ._._| |\n| ._| ._.   ._|   | |\n| ._._._._._| . ._| |\n| . | ._._._._| . | |\n| | | |   .     | . |\n| | | |   |   ._. | |\n| | | |   |   ._|   |\n| ._| |_. |_._._._. |\n|_._._._._._._._._._|'
p190
a(lp191
(dp192
S'name'
p193
NsS'ipaddr'
p194
V127.0.0.1
p195
sS'session_id'
p196
I29892197
sS'port'
p197
I5001
sS'score'
p198
I0
sS'id'
p199
NsS'tank_id'
p200
I2
sa(dp201
S'name'
p202
NsS'ipaddr'
p203
V127.0.0.1
p204
sS'session_id'
p205
I79720406
sS'port'
p206
I5002
sS'score'
p207
I0
sS'id'
p208
NsS'tank_id'
p209
I2
sa(dp210
S'name'
p211
NsS'ipaddr'
p212
V127.0.0.1
p213
sS'session_id'
p214
I23163447
sS'port'
p215
I5003
sS'score'
p216
I945
sS'id'
p217
NsS'tank_id'
p218
I2
saasV74416424
p219
(lp220
S'._._._._._._._._._._.\n|   ._._.   ._._.   |\n|     |     |_. |   |\n|     |     |   |   |\n|     |     |   |   |\n|                   |\n|   ._. .   . ._.   |\n|   | | |   |_|     |\n|   | | |   |_.     |\n|   | |_|   | |_.   |\n|_._._._._._._._._._|'
p221
a(lp222
(dp223
S'name'
p224
NsS'ipaddr'
p225
V127.0.0.1
p226
sS'session_id'
p227
I97698682
sS'port'
p228
I5002
sS'score'
p229
I225
sS'id'
p230
NsS'tank_id'
p231
I2
sa(dp232
S'name'
p233
S'USER'
p234
sS'ipaddr'
p235
V127.0.0.1
p236
sS'session_id'
p237
I11268628
sS'port'
p238
I5001
sS'score'
p239
I0
sS'id'
p240
V1000
p241
sS'tank_id'
p242
I2
saasV21580100
p243
(lp244
S'._._._._._._._._._._.\n|   |_. ._._. ._|   |\n|_.   |_.   ._|   ._|\n| |_.   |   |   ._| |\n| . |   ._._.   | . |\n| |               | |\n| | .   ._._.   . | |\n| ._|   .   .   |_. |\n|_|   ._|   |_.   |_|\n|   ._| ._._. |_.   |\n|_._|_._._._._._|_._|'
p245
a(lp246
(dp247
S'name'
p248
NsS'ipaddr'
p249
V127.0.0.1
p250
sS'session_id'
p251
I31411490
sS'port'
p252
I5001
sS'score'
p253
I-1
sS'id'
p254
NsS'tank_id'
p255
I2
sa(dp256
S'name'
p257
NsS'ipaddr'
p258
V127.0.0.1
p259
sS'session_id'
p260
I41874829
sS'port'
p261
I5002
sS'score'
p262
I-1
sS'id'
p263
NsS'tank_id'
p264
I2
saasV8352213
p265
(lp266
S'._._._._._._._._._._.\n| . . ._. . ._._. . |\n| | | | . |   ._. | |\n| ._|_._| | ._|   | |\n| ._._._._.   ._._| |\n| . | . ._._._| ._._|\n| | | | | ._. | |   |\n| . . . . ._|   |_. |\n| | | | | | ._._| . |\n| ._| |_. |_._._._| |\n|_._._._._._._._._._|'
p267
a(lp268
(dp269
S'name'
p270
NsS'ipaddr'
p271
V127.0.0.1
p272
sS'session_id'
p273
I40371810
sS'port'
p274
I5001
sS'score'
p275
I-1
sS'id'
p276
NsS'tank_id'
p277
I2
sa(dp278
S'name'
p279
NsS'ipaddr'
p280
V127.0.0.1
p281
sS'session_id'
p282
I17120194
sS'port'
p283
I5002
sS'score'
p284
I-1
sS'id'
p285
NsS'tank_id'
p286
I2
saasV56607680
p287
(lp288
S'._._._._._._._._._._.\n|   ._._.   ._._.   |\n|     |     |_. |   |\n|     |     |   |   |\n|     |     |   |   |\n|                   |\n|   ._. .   . ._.   |\n|   | | |   |_|     |\n|   | | |   |_.     |\n|   | |_|   | |_.   |\n|_._._._._._._._._._|'
p289
a(lp290
(dp291
S'name'
p292
NsS'ipaddr'
p293
V127.0.0.1
p294
sS'session_id'
p295
I15794897
sS'port'
p296
I5003
sS'score'
p297
I-1
sS'id'
p298
NsS'tank_id'
p299
I2
sa(dp300
S'name'
p301
NsS'ipaddr'
p302
V127.0.0.1
p303
sS'session_id'
p304
I50702180
sS'port'
p305
I5001
sS'score'
p306
I0
sS'id'
p307
NsS'tank_id'
p308
I2
sa(dp309
S'name'
p310
NsS'ipaddr'
p311
V127.0.0.1
p312
sS'session_id'
p313
I14934299
sS'port'
p314
I5002
sS'score'
p315
I450
sS'id'
p316
NsS'tank_id'
p317
I2
saasV0
p318
(lp319
S'._._._._._._._._._._.\n| ._._._.   ._._._. |\n| | ._.       ._. | |\n| | |_.       ._| | |\n| |_._._.   ._._._| |\n|                   |\n| ._._._.   ._._._. |\n| |     |   |     | |\n| |   ._|   |_.   | |\n| |_._._.   ._._._| |\n|_._._._._._._._._._|'
p320
a(lp321
(dp322
S'name'
p323
NsS'ipaddr'
p324
V127.0.0.1
p325
sS'session_id'
p326
I10551696
sS'port'
p327
I5001
sS'score'
p328
I0
sS'id'
p329
NsS'tank_id'
p330
I2
sa(dp331
S'name'
p332
NsS'ipaddr'
p333
V127.0.0.1
p334
sS'session_id'
p335
I90651377
sS'port'
p336
I5002
sS'score'
p337
I0
sS'id'
p338
NsS'tank_id'
p339
I2
saasV77970181
p340
(lp341
S'._._._._._._._._._._.\n| . | ._._._._. | . |\n| | ._._._._._._. | |\n| | ._._. . ._._. | |\n|_| |   . | .   | |_|\n| ._| ._| | |_. |_. |\n|_._._._. | ._._._._|\n|_. . |  ._.  | ._. |\n| ._| |  ._.  | | | |\n| | . |_.   ._|     |\n|_._|_._._._._._|_|_|'
p342
a(lp343
(dp344
S'name'
p345
NsS'ipaddr'
p346
V127.0.0.1
p347
sS'session_id'
p348
I99862257
sS'port'
p349
I5001
sS'score'
p350
I-1
sS'id'
p351
NsS'tank_id'
p352
I2
sa(dp353
S'name'
p354
NsS'ipaddr'
p355
V127.0.0.1
p356
sS'session_id'
p357
I65981634
sS'port'
p358
I5002
sS'score'
p359
I-1
sS'id'
p360
NsS'tank_id'
p361
I2
saasV41987665
p362
(lp363
S'._._._._._._._._._._.\n|   |_. ._._. ._|   |\n|_.   |_.   ._|   ._|\n| |_.   |   |   ._| |\n| . |   ._._.   | . |\n| |               | |\n| | .   ._._.   . | |\n| ._|   .   .   |_. |\n|_|   ._|   |_.   |_|\n|   ._| ._._. |_.   |\n|_._|_._._._._._|_._|'
p364
a(lp365
(dp366
S'name'
p367
NsS'ipaddr'
p368
V127.0.0.1
p369
sS'session_id'
p370
I84020490
sS'port'
p371
I5001
sS'score'
p372
I0
sS'id'
p373
NsS'tank_id'
p374
I2
sa(dp375
S'name'
p376
NsS'ipaddr'
p377
V127.0.0.1
p378
sS'session_id'
p379
I50768198
sS'port'
p380
I5002
sS'score'
p381
I0
sS'id'
p382
NsS'tank_id'
p383
I2
sa(dp384
S'name'
p385
NsS'ipaddr'
p386
V127.0.0.1
p387
sS'session_id'
p388
I12836941
sS'port'
p389
I5003
sS'score'
p390
I1200
sS'id'
p391
NsS'tank_id'
p392
I2
saasV22314880
p393
(lp394
S'._._._._._._._._._._.\n| .       |       . |\n| |_._.   |   ._._| |\n| | ._.   |   ._. | |\n| | | ._.   ._. | | |\n| |   |       |   | |\n| | ._. ._._. ._. | |\n| | |   | . |   | | |\n| |_._.   |   ._._| |\n| |       |       | |\n|_._._._._|_._._._._|'
p395
a(lp396
(dp397
S'name'
p398
NsS'ipaddr'
p399
V127.0.0.1
p400
sS'session_id'
p401
I55459408
sS'port'
p402
I5001
sS'score'
p403
I-1
sS'id'
p404
NsS'tank_id'
p405
I2
sa(dp406
S'name'
p407
NsS'ipaddr'
p408
V127.0.0.1
p409
sS'session_id'
p410
I74479114
sS'port'
p411
I5003
sS'score'
p412
I-1
sS'id'
p413
NsS'tank_id'
p414
I2
sa(dp415
S'name'
p416
NsS'ipaddr'
p417
V127.0.0.1
p418
sS'session_id'
p419
I14384758
sS'port'
p420
I5002
sS'score'
p421
I-1
sS'id'
p422
NsS'tank_id'
p423
I2
saasV59646999
p424
(lp425
S'._._._._._._._._._._.\n|   .   .   .   |   |\n| ._|_. |_._|_._._. |\n|   |   |   .   |   |\n|_._| ._._._|_._| ._|\n|   |   |   |   .   |\n| ._._._. ._. ._|_._|\n|   |   |   |   .   |\n|_._| ._|_. |_._| ._|\n|   .   |   |   |   |\n|_._|_._._._|_._._._|'
p426
a(lp427
(dp428
S'name'
p429
NsS'ipaddr'
p430
V127.0.0.1
p431
sS'session_id'
p432
I22159355
sS'port'
p433
I5001
sS'score'
p434
I-1
sS'id'
p435
NsS'tank_id'
p436
I2
sa(dp437
S'name'
p438
NsS'ipaddr'
p439
V127.0.0.1
p440
sS'session_id'
p441
I17409169
sS'port'
p442
I5002
sS'score'
p443
I-1
sS'id'
p444
NsS'tank_id'
p445
I2
saasV32105232
p446
(lp447
S'._._._._._._._._._._.\n| . . ._. . ._._. . |\n| | | | . |   ._. | |\n| ._|_._| | ._|   | |\n| ._._._._.   ._._| |\n| . | . ._._._| ._._|\n| | | | | ._. | |   |\n| . . . . ._|   |_. |\n| | | | | | ._._| . |\n| ._| |_. |_._._._| |\n|_._._._._._._._._._|'
p448
a(lp449
(dp450
S'name'
p451
S'USER'
p452
sS'ipaddr'
p453
V127.0.0.1
p454
sS'session_id'
p455
I91185648
sS'port'
p456
I5001
sS'score'
p457
I300
sS'id'
p458
V1000
p459
sS'tank_id'
p460
I2
sa(dp461
S'name'
p462
S'USER'
p463
sS'ipaddr'
p464
V127.0.0.1
p465
sS'session_id'
p466
I7994928
sS'port'
p467
I5002
sS'score'
p468
I255
sS'id'
p469
V1001
p470
sS'tank_id'
p471
I2
saasV9665660
p472
(lp473
S'._._._._._._._._._._.\n| . . ._.   |     . |\n|_| |       | ._._| |\n| ._| ._.   ._|   | |\n| ._._._._._| . ._| |\n| . | ._._._._| . | |\n| | | |   .     | . |\n| | | |   |   ._. | |\n| | | |   |   ._|   |\n| ._| |_. |_._._._. |\n|_._._._._._._._._._|'
p474
a(lp475
(dp476
S'name'
p477
NsS'ipaddr'
p478
V127.0.0.1
p479
sS'session_id'
p480
I38963136
sS'port'
p481
I5001
sS'score'
p482
I0
sS'id'
p483
NsS'tank_id'
p484
I2
sa(dp485
S'name'
p486
NsS'ipaddr'
p487
V127.0.0.1
p488
sS'session_id'
p489
I51933658
sS'port'
p490
I5002
sS'score'
p491
I-1
sS'id'
p492
NsS'tank_id'
p493
I2
saasV17729092
p494
(lp495
S'._._._._._._._._._._.\n|                   |\n|   ._._._._._._.   |\n|   |           |   |\n|   |   . ._.       |\n|   |   |   |   .   |\n|       |_. |   |   |\n|   .           |   |\n|   |_._._._._._|   |\n|                   |\n|_._._._._._._._._._|'
p496
a(lp497
(dp498
S'name'
p499
NsS'ipaddr'
p500
V127.0.0.1
p501
sS'session_id'
p502
I79630644
sS'port'
p503
I5001
sS'score'
p504
I1710
sS'id'
p505
NsS'tank_id'
p506
I2
sa(dp507
S'name'
p508
NsS'ipaddr'
p509
V127.0.0.1
p510
sS'session_id'
p511
I91848146
sS'port'
p512
I5002
sS'score'
p513
I-1
sS'id'
p514
NsS'tank_id'
p515
I2
sa(dp516
S'name'
p517
NsS'ipaddr'
p518
V127.0.0.1
p519
sS'session_id'
p520
I28069756
sS'port'
p521
I5003
sS'score'
p522
I-1
sS'id'
p523
NsS'tank_id'
p524
I2
saasV35735195
p525
(lp526
S'._._._._._._._._._._.\n| ._. ._. | ._. ._. |\n| | ._. | | |     | |\n|   |_. |_.         |\n| |_._.   | |_. ._| |\n|_._. |_._|_._. ._._|\n| ._._._._|         |\n| | . ._. |         |\n| | | | | .         |\n|_._|_. | |         |\n|_._._._._|_._._._._|'
p527
a(lp528
(dp529
S'name'
p530
NsS'ipaddr'
p531
V127.0.0.1
p532
sS'session_id'
p533
I78896334
sS'port'
p534
I5001
sS'score'
p535
I0
sS'id'
p536
NsS'tank_id'
p537
I2
sa(dp538
S'name'
p539
NsS'ipaddr'
p540
V127.0.0.1
p541
sS'session_id'
p542
I70415168
sS'port'
p543
I5002
sS'score'
p544
I270
sS'id'
p545
NsS'tank_id'
p546
I2
saasV87200848
p547
(lp548
S'._._._._._._._._._._.\n| . . |_.   |_._.   |\n|_| | | ._. | ._._. |\n| ._|_._| | ._|_. | |\n| |_._._._._| ._._| |\n| . . . ._._._| ._._|\n| | | | | ._. | | . |\n| | | | ._| . |_._| |\n| | | | | | |_._| . |\n| ._| |_. |_._._._| |\n|_._._._._._._._._._|'
p549
a(lp550
(dp551
S'name'
p552
NsS'ipaddr'
p553
V127.0.0.1
p554
sS'session_id'
p555
I78866948
sS'port'
p556
I5001
sS'score'
p557
I-1
sS'id'
p558
NsS'tank_id'
p559
I2
sa(dp560
S'name'
p561
NsS'ipaddr'
p562
V127.0.0.1
p563
sS'session_id'
p564
I41014196
sS'port'
p565
I5001
sS'score'
p566
I0
sS'id'
p567
NsS'tank_id'
p568
I2
saasV89596256
p569
(lp570
S'._._._._._._._._._._.\n|   |_. ._._. ._|   |\n|_.   |_.   ._|   ._|\n| |_.   |   |   ._| |\n| . |   ._._.   | . |\n| |               | |\n| | .   ._._.   . | |\n| ._|   .   .   |_. |\n|_|   ._|   |_.   |_|\n|   ._| ._._. |_.   |\n|_._|_._._._._._|_._|'
p571
a(lp572
(dp573
S'name'
p574
NsS'ipaddr'
p575
V127.0.0.1
p576
sS'session_id'
p577
I12193401
sS'port'
p578
I5001
sS'score'
p579
I-1
sS'id'
p580
NsS'tank_id'
p581
I2
sa(dp582
S'name'
p583
NsS'ipaddr'
p584
V127.0.0.1
p585
sS'session_id'
p586
I30942434
sS'port'
p587
I5002
sS'score'
p588
I-1
sS'id'
p589
NsS'tank_id'
p590
I2
saasV58045004
p591
(lp592
S'._._._._._._._._._._.\n| . . ._.   |     . |\n|_| |       | ._._| |\n| ._| ._.   ._|   | |\n| ._._._._._| . ._| |\n| . | ._._._._| . | |\n| | | |   .     | . |\n| | | |   |   ._. | |\n| | | |   |   ._|   |\n| ._| |_. |_._._._. |\n|_._._._._._._._._._|'
p593
a(lp594
(dp595
S'name'
p596
NsS'ipaddr'
p597
V127.0.0.1
p598
sS'session_id'
p599
I19385181
sS'port'
p600
I5001
sS'score'
p601
I0
sS'id'
p602
NsS'tank_id'
p603
I2
sa(dp604
S'name'
p605
NsS'ipaddr'
p606
V127.0.0.1
p607
sS'session_id'
p608
I71686988
sS'port'
p609
I5002
sS'score'
p610
I0
sS'id'
p611
NsS'tank_id'
p612
I2
sa(dp613
S'name'
p614
NsS'ipaddr'
p615
V127.0.0.1
p616
sS'session_id'
p617
I76434848
sS'port'
p618
I5003
sS'score'
p619
I585
sS'id'
p620
NsS'tank_id'
p621
I2
saasV69071652
p622
(lp623
S'._._._._._._._._._._.\n|   .   .   .   |   |\n| ._|_. |_._|_._._. |\n|   |   |   .   |   |\n|_._| ._._._|_._| ._|\n|   |   |   |   .   |\n| ._._._. ._. ._|_._|\n|   |   |   |   .   |\n|_._| ._|_. |_._| ._|\n|   .   |   |   |   |\n|_._|_._._._|_._._._|'
p624
a(lp625
(dp626
S'name'
p627
S'USER'
p628
sS'ipaddr'
p629
V127.0.0.1
p630
sS'session_id'
p631
I53965763
sS'port'
p632
I5001
sS'score'
p633
I0
sS'id'
p634
V1001
p635
sS'tank_id'
p636
I2
sa(dp637
S'name'
p638
S'USER'
p639
sS'ipaddr'
p640
V127.0.0.1
p641
sS'session_id'
p642
I87856346
sS'port'
p643
I5002
sS'score'
p644
I0
sS'id'
p645
V1000
p646
sS'tank_id'
p647
I2
saasV65850247
p648
(lp649
S'._._._._._._._._._._.\n| . . ._.   |     . |\n|_| |       | ._._| |\n| ._| ._.   ._|   | |\n| ._._._._._| . ._| |\n| . | ._._._._| . | |\n| | | |   .     | . |\n| | | |   |   ._. | |\n| | | |   |   ._|   |\n| ._| |_. |_._._._. |\n|_._._._._._._._._._|'
p650
a(lp651
(dp652
S'name'
p653
NsS'ipaddr'
p654
V127.0.0.1
p655
sS'session_id'
p656
I36535807
sS'port'
p657
I5002
sS'score'
p658
I0
sS'id'
p659
NsS'tank_id'
p660
I2
sa(dp661
S'name'
p662
NsS'ipaddr'
p663
V127.0.0.1
p664
sS'session_id'
p665
I86341889
sS'port'
p666
I5001
sS'score'
p667
I0
sS'id'
p668
NsS'tank_id'
p669
I2
saasV99121667
p670
(lp671
S'._._._._._._._._._._.\n|_. ._. ._. ._. ._. |\n| ._._._. ._._._. ._|\n|_. ._._._. ._._._. |\n| ._. ._. ._. ._. ._|\n|_.   ._._._._.   ._|\n|_. ._._.   ._._. ._|\n| ._._._.   ._._._. |\n|_.   ._._._._.   ._|\n|   ._._.   ._._.   |\n|_._._._._._._._._._|'
p672
a(lp673
(dp674
S'name'
p675
NsS'ipaddr'
p676
V127.0.0.1
p677
sS'session_id'
p678
I27526036
sS'port'
p679
I5001
sS'score'
p680
I-1
sS'id'
p681
NsS'tank_id'
p682
I2
sa(dp683
S'name'
p684
NsS'ipaddr'
p685
V127.0.0.1
p686
sS'session_id'
p687
I71427959
sS'port'
p688
I5002
sS'score'
p689
I-1
sS'id'
p690
NsS'tank_id'
p691
I2
saasV2789754
p692
(lp693
S'._._._._._._._._._._.\n| . . ._.   |     . |\n|_| |       | ._._| |\n| ._| ._.   ._|   | |\n| ._._._._._| . ._| |\n| . | ._._._._| . | |\n| | | |   .     | . |\n| | | |   |   ._. | |\n| | | |   |   ._|   |\n| ._| |_. |_._._._. |\n|_._._._._._._._._._|'
p694
a(lp695
(dp696
S'name'
p697
S'USER'
p698
sS'ipaddr'
p699
V127.0.0.1
p700
sS'session_id'
p701
I450323
sS'port'
p702
I5001
sS'score'
p703
I-1
sS'id'
p704
V1001
p705
sS'tank_id'
p706
I5
sa(dp707
S'name'
p708
S'USER'
p709
sS'ipaddr'
p710
V127.0.0.1
p711
sS'session_id'
p712
I19253029
sS'port'
p713
I5002
sS'score'
p714
I-1
sS'id'
p715
V1000
p716
sS'tank_id'
p717
I0
saassS'wait_for_start'
p718
I01
sS'start_time'
p719
F1412191773.800167
sS'waitlist'
p720
g365
sS'battle_id'
p721
I41987665
s.