(dp0
S'battlelist'
p1
(dp2
V51788421
p3
(lp4
S'._._._._._._._._._._.\n| ._. ._. | ._. ._. |\n| | ._. | | |     | |\n|   |_. |_.         |\n| |_._.   | |_. ._| |\n|_._. |_._|_._. ._._|\n| ._._._._|         |\n| | . ._. |         |\n| | | | | .         |\n|_._|_. | |         |\n|_._._._._|_._._._._|'
p5
a(lp6
(dp7
S'name'
p8
S'GUEST2'
p9
sS'ipaddr'
p10
V127.0.0.1
p11
sS'session_id'
p12
I24275892
sS'id'
p13
NsS'score'
p14
I0
sS'deadtime'
p15
F2147483647.0
sS'port'
p16
I5001
sS'tank_id'
p17
I2
sa(dp18
S'name'
p19
S'GUEST1'
p20
sS'ipaddr'
p21
V127.0.0.1
p22
sS'session_id'
p23
I22596999
sS'port'
p24
I5002
sS'score'
p25
I0
sS'deadtime'
p26
F2147483647.0
sS'id'
p27
NsS'tank_id'
p28
I2
saaI01
asV79748965
p29
(lp30
S'._._._._._._._._._._.\n| ._._._.   ._._._. |\n| | ._._.   ._._. | |\n| | | ._.   ._. | | |\n| | | |       | | | |\n|                   |\n| . . .       . . . |\n| | | |_.   ._| | | |\n| | |_._.   ._._| | |\n| |_._._.   ._._._| |\n|_._._._._._._._._._|'
p31
a(lp32
(dp33
S'name'
p34
S'USER'
p35
sS'ipaddr'
p36
V192.168.1.37
p37
sS'session_id'
p38
I93909380
sS'port'
p39
I8800
sS'score'
p40
I225
sS'id'
p41
V1001
p42
sS'tank_id'
p43
I5
sa(dp44
S'name'
p45
S'USER'
p46
sS'ipaddr'
p47
V192.168.1.38
p48
sS'session_id'
p49
I42274812
sS'port'
p50
I8800
sS'score'
p51
I450
sS'id'
p52
V1000
p53
sS'tank_id'
p54
I2
saasV87939347
p55
(lp56
S'._._._._._._._._._._.\n| . . |_.   |_._.   |\n|_| | | ._. | ._._. |\n| ._|_._| | ._|_. | |\n| |_._._._._| ._._| |\n| . . . ._._._| ._._|\n| | | | | ._. | | . |\n| | | | ._| . |_._| |\n| | | | | | |_._| . |\n| ._| |_. |_._._._| |\n|_._._._._._._._._._|'
p57
a(lp58
(dp59
S'name'
p60
S'GUEST2'
p61
sS'ipaddr'
p62
V127.0.0.1
p63
sS'session_id'
p64
I28041422
sS'port'
p65
I5001
sS'score'
p66
I-1
sS'id'
p67
NsS'tank_id'
p68
I2
sa(dp69
S'name'
p70
S'GUEST1'
p71
sS'ipaddr'
p72
V127.0.0.1
p73
sS'session_id'
p74
I82316578
sS'port'
p75
I5002
sS'score'
p76
I-1
sS'id'
p77
NsS'tank_id'
p78
I2
saaI00
asV87083258
p79
(lp80
S'._._._._._._._._._._.\n| ._._._._.     ._. |\n| |   | |     . | | |\n| |_. ._.   ._|_|   |\n| |_. |     | |   . |\n| |     .   |   ._| |\n|     . |     ._| . |\n|   ._|_|   ._| . | |\n| . | |   ._| ._| | |\n| |_|   ._| ._._._| |\n|_._._._._._._._._._|'
p81
a(lp82
(dp83
S'name'
p84
S'USER'
p85
sS'ipaddr'
p86
V192.168.1.37
p87
sS'session_id'
p88
I94859874
sS'port'
p89
I8800
sS'score'
p90
I1760
sS'id'
p91
V1001
p92
sS'tank_id'
p93
I3
sa(dp94
S'name'
p95
NsS'ipaddr'
p96
V192.168.1.38
p97
sS'session_id'
p98
I41093446
sS'port'
p99
I8800
sS'score'
p100
I480
sS'id'
p101
NsS'tank_id'
p102
I2
sa(dp103
S'name'
p104
NsS'ipaddr'
p105
V192.168.1.35
p106
sS'session_id'
p107
I49085014
sS'port'
p108
I8800
sS'score'
p109
I200
sS'id'
p110
NsS'tank_id'
p111
I1
saasV83631728
p112
(lp113
S'._._._._._._._._._._.\n| .       |       . |\n| |_._.   |   ._._| |\n| | ._.   |   ._. | |\n| | | ._.   ._. | | |\n| |   |       |   | |\n| | ._. ._._. ._. | |\n| | |   | . |   | | |\n| |_._.   |   ._._| |\n| |       |       | |\n|_._._._._|_._._._._|'
p114
a(lp115
(dp116
S'name'
p117
S'USER'
p118
sS'ipaddr'
p119
V192.168.1.37
p120
sS'session_id'
p121
I66797263
sS'port'
p122
I8800
sS'score'
p123
I315
sS'id'
p124
V1001
p125
sS'tank_id'
p126
I4
sa(dp127
S'name'
p128
NsS'ipaddr'
p129
V192.168.1.38
p130
sS'session_id'
p131
I38782848
sS'port'
p132
I8800
sS'score'
p133
I30
sS'id'
p134
NsS'tank_id'
p135
I1
sa(dp136
S'name'
p137
S'USER'
p138
sS'ipaddr'
p139
V192.168.1.35
p140
sS'session_id'
p141
I68382616
sS'port'
p142
I8800
sS'score'
p143
I420
sS'id'
p144
V1000
p145
sS'tank_id'
p146
I2
saasV91972490
p147
(lp148
S'._._._._._._._._._._.\n|                   |\n| ._. ._.   ._. ._. |\n| | | | |   | | | | |\n|                   |\n|                   |\n| ._._._._._._._._. |\n|     |       |     |\n|     |   .   |     |\n|         |         |\n|_._._._._|_._._._._|'
p149
a(lp150
(dp151
S'name'
p152
NsS'ipaddr'
p153
V127.0.0.1
p154
sS'session_id'
p155
I98755219
sS'port'
p156
I5001
sS'score'
p157
I0
sS'id'
p158
NsS'tank_id'
p159
I2
sa(dp160
S'name'
p161
NsS'ipaddr'
p162
V127.0.0.1
p163
sS'session_id'
p164
I50375727
sS'port'
p165
I5002
sS'score'
p166
I-1
sS'id'
p167
NsS'tank_id'
p168
I2
sa(dp169
S'name'
p170
NsS'ipaddr'
p171
V127.0.0.1
p172
sS'session_id'
p173
I8045340
sS'port'
p174
I5003
sS'score'
p175
I-1
sS'id'
p176
NsS'tank_id'
p177
I2
saasV89731463
p178
(lp179
S'._._._._._._._._._._.\n|   |  _._  |  _._  |\n|   |       |       |\n|   |       |       | \n|   |_.   ._|_.   ._|\n|   |   .   |   .   |\n|_.   ._|_.   ._|   |\n|       |       |   |\n|       |       |   |\n|  _._  |  _._  |   |\n|_._._._|_._._._|_._|'
p180
a(lp181
(dp182
S'name'
p183
NsS'ipaddr'
p184
V192.168.1.38
p185
sS'session_id'
p186
I17519921
sS'port'
p187
I8800
sS'score'
p188
I920
sS'id'
p189
NsS'tank_id'
p190
I2
sa(dp191
S'name'
p192
NsS'ipaddr'
p193
V192.168.1.35
p194
sS'session_id'
p195
I2443833
sS'port'
p196
I8800
sS'score'
p197
I1880
sS'id'
p198
NsS'tank_id'
p199
I5
sa(dp200
S'name'
p201
NsS'ipaddr'
p202
V192.168.1.37
p203
sS'session_id'
p204
I47180851
sS'port'
p205
I8800
sS'score'
p206
I480
sS'id'
p207
NsS'tank_id'
p208
I2
sa(dp209
S'name'
p210
NsS'ipaddr'
p211
V192.168.1.36
p212
sS'session_id'
p213
I9848611
sS'port'
p214
I8800
sS'score'
p215
I240
sS'id'
p216
NsS'tank_id'
p217
I1
saasV22431771
p218
(lp219
S'._._._._._._._._._._.\n|   |_. ._._. ._|   |\n|_.   |_.   ._|   ._|\n| |_.   |   |   ._| |\n| . |   ._._.   | . |\n| |               | |\n| | .   ._._.   . | |\n| ._|   .   .   |_. |\n|_|   ._|   |_.   |_|\n|   ._| ._._. |_.   |\n|_._|_._._._._._|_._|'
p220
a(lp221
(dp222
S'name'
p223
NsS'ipaddr'
p224
V127.0.0.1
p225
sS'session_id'
p226
I70355353
sS'port'
p227
I5001
sS'score'
p228
I0
sS'id'
p229
NsS'tank_id'
p230
I2
sa(dp231
S'name'
p232
NsS'ipaddr'
p233
V127.0.0.1
p234
sS'session_id'
p235
I1825773
sS'port'
p236
I5002
sS'score'
p237
I0
sS'id'
p238
NsS'tank_id'
p239
I2
sa(dp240
S'name'
p241
NsS'ipaddr'
p242
V127.0.0.1
p243
sS'session_id'
p244
I44129651
sS'port'
p245
I5003
sS'score'
p246
I405
sS'id'
p247
NsS'tank_id'
p248
I2
saasV67903806
p249
(lp250
S'._._._._._._._._._._.\n| ._._._._.     ._. |\n| |   | |     . | | |\n| |_. ._.   ._|_|   |\n| |_. |     | |   . |\n| |     .   |   ._| |\n|     . |     ._| . |\n|   ._|_|   ._| . | |\n| . | |   ._| ._| | |\n| |_|   ._| ._._._| |\n|_._._._._._._._._._|'
p251
a(lp252
(dp253
S'name'
p254
NsS'ipaddr'
p255
V127.0.0.1
p256
sS'session_id'
p257
I73441314
sS'port'
p258
I5001
sS'score'
p259
I-1
sS'id'
p260
NsS'tank_id'
p261
I2
sa(dp262
S'name'
p263
NsS'ipaddr'
p264
V127.0.0.1
p265
sS'session_id'
p266
I94656473
sS'port'
p267
I5002
sS'score'
p268
I-1
sS'id'
p269
NsS'tank_id'
p270
I2
sa(dp271
S'name'
p272
NsS'ipaddr'
p273
V127.0.0.1
p274
sS'session_id'
p275
I15989341
sS'port'
p276
I5003
sS'score'
p277
I-1
sS'id'
p278
NsS'tank_id'
p279
I2
saasV58511651
p280
(lp281
S'._._._._._._._._._._.\n|   .   .   .   |   |\n| ._|_. |_._|_._._. |\n|   |   |   .   |   |\n|_._| ._._._|_._| ._|\n|   |   |   |   .   |\n| ._._._. ._. ._|_._|\n|   |   |   |   .   |\n|_._| ._|_. |_._| ._|\n|   .   |   |   |   |\n|_._|_._._._|_._._._|'
p282
a(lp283
(dp284
S'name'
p285
NsS'ipaddr'
p286
V192.168.1.37
p287
sS'session_id'
p288
I68556656
sS'port'
p289
I8800
sS'score'
p290
I165
sS'id'
p291
NsS'tank_id'
p292
I1
sa(dp293
S'name'
p294
NsS'ipaddr'
p295
V192.168.1.36
p296
sS'session_id'
p297
I75139461
sS'port'
p298
I8800
sS'score'
p299
I150
sS'id'
p300
NsS'tank_id'
p301
I1
sa(dp302
S'name'
p303
NsS'ipaddr'
p304
V192.168.1.38
p305
sS'session_id'
p306
I41423193
sS'port'
p307
I8800
sS'score'
p308
I525
sS'id'
p309
NsS'tank_id'
p310
I2
saasV71120044
p311
(lp312
S'._._._._._._._._._._.\n| . . ._.   |     . |\n|_| |       | ._._| |\n| ._| ._.   ._|   | |\n| ._._._._._| . ._| |\n| . | ._._._._| . | |\n| | | |   .     | . |\n| | | |   |   ._. | |\n| | | |   |   ._|   |\n| ._| |_. |_._._._. |\n|_._._._._._._._._._|'
p313
a(lp314
(dp315
S'name'
p316
NsS'ipaddr'
p317
V127.0.0.1
p318
sS'session_id'
p319
I82963956
sS'port'
p320
I5001
sS'score'
p321
I0
sS'id'
p322
NsS'tank_id'
p323
I2
sa(dp324
S'name'
p325
NsS'ipaddr'
p326
V127.0.0.1
p327
sS'session_id'
p328
I51277323
sS'port'
p329
I5002
sS'score'
p330
I0
sS'id'
p331
NsS'tank_id'
p332
I2
saasV79202359
p333
(lp334
S'._._._._._._._._._._.\n|       |   . ._._. |\n|_.   ._|_._| | . | |\n| . . . |   . | | | |\n| | | | ._._|_._|_. |\n| |_._| .   | .   . |\n|_.   ._|_._. |_._| |\n| . . . . . | |   | |\n| | |_|_| | |_. . ._|\n| |_. | ._| | ._|_. |\n|_._._._._._._._._._|'
p335
a(lp336
(dp337
S'name'
p338
S'GUEST2'
p339
sS'ipaddr'
p340
V127.0.0.1
p341
sS'session_id'
p342
I62312644
sS'port'
p343
I5001
sS'score'
p344
I-1
sS'id'
p345
NsS'tank_id'
p346
I2
sa(dp347
S'name'
p348
S'GUEST1'
p349
sS'ipaddr'
p350
V127.0.0.1
p351
sS'session_id'
p352
I10912129
sS'port'
p353
I5002
sS'score'
p354
I-1
sS'id'
p355
NsS'tank_id'
p356
I2
saaI00
asV25017549
p357
(lp358
S'._._._._._._._._._._.\n|                   |\n|   ._._._._._._.   |\n|   |           |   |\n|   |   . ._.       |\n|   |   |   |   .   |\n|       |_. |   |   |\n|   .           |   |\n|   |_._._._._._|   |\n|                   |\n|_._._._._._._._._._|'
p359
a(lp360
(dp361
S'name'
p362
NsS'ipaddr'
p363
V127.0.0.1
p364
sS'session_id'
p365
I70815129
sS'port'
p366
I5002
sS'score'
p367
I-1
sS'id'
p368
NsS'tank_id'
p369
I2
sa(dp370
S'name'
p371
S'USER'
p372
sS'ipaddr'
p373
V127.0.0.1
p374
sS'session_id'
p375
I14220821
sS'port'
p376
I5001
sS'score'
p377
I0
sS'id'
p378
V1000
p379
sS'tank_id'
p380
I2
saasV39308019
p381
(lp382
S'._._._._._._._._._._.\n| .       |       . |\n| |_._.   |   ._._| |\n| | ._.   |   ._. | |\n| | | ._.   ._. | | |\n| |   |       |   | |\n| | ._. ._._. ._. | |\n| | |   | . |   | | |\n| |_._.   |   ._._| |\n| |       |       | |\n|_._._._._|_._._._._|'
p383
a(lp384
(dp385
S'name'
p386
S'GUEST2'
p387
sS'ipaddr'
p388
V127.0.0.1
p389
sS'session_id'
p390
I34025270
sS'id'
p391
NsS'score'
p392
I0
sS'deadtime'
p393
F2147483647.0
sS'port'
p394
I5001
sS'tank_id'
p395
I2
sa(dp396
S'name'
p397
S'GUEST1'
p398
sS'ipaddr'
p399
V127.0.0.1
p400
sS'session_id'
p401
I46623681
sS'port'
p402
I5002
sS'score'
p403
I0
sS'deadtime'
p404
F2147483647.0
sS'id'
p405
NsS'tank_id'
p406
I2
saaI01
asV28157585
p407
(lp408
S'._._._._._._._._._._.\n|       |   . ._._. |\n|_.   ._|_._| | . | |\n| . . . |   . | | | |\n| | | | ._._|_._|_. |\n| |_._| .   | .   . |\n|_.   ._|_._. |_._| |\n| . . . . . | |   | |\n| | |_|_| | |_. . ._|\n| |_. | ._| | ._|_. |\n|_._._._._._._._._._|'
p409
a(lp410
(dp411
S'name'
p412
NsS'ipaddr'
p413
V192.168.1.36
p414
sS'session_id'
p415
I13388608
sS'port'
p416
I8800
sS'score'
p417
I-1
sS'id'
p418
NsS'tank_id'
p419
I0
sa(dp420
S'name'
p421
NsS'ipaddr'
p422
V192.168.1.37
p423
sS'session_id'
p424
I50234719
sS'port'
p425
I8800
sS'score'
p426
I0
sS'id'
p427
NsS'tank_id'
p428
I2
sa(dp429
S'name'
p430
NsS'ipaddr'
p431
V192.168.1.38
p432
sS'session_id'
p433
I18625010
sS'port'
p434
I8800
sS'score'
p435
I45
sS'id'
p436
NsS'tank_id'
p437
I2
saasV8725871
p438
(lp439
S'._._._._._._._._._._.\n| ._. ._. | ._. ._. |\n| | ._. | | |     | |\n|   |_. |_.         |\n| |_._.   | |_. ._| |\n|_._. |_._|_._. ._._|\n| ._._._._|         |\n| | . ._. |         |\n| | | | | .         |\n|_._|_. | |         |\n|_._._._._|_._._._._|'
p440
a(lp441
(dp442
S'name'
p443
S'USER'
p444
sS'ipaddr'
p445
V127.0.0.1
p446
sS'session_id'
p447
I43166576
sS'port'
p448
I5001
sS'score'
p449
I270
sS'id'
p450
V1000
p451
sS'tank_id'
p452
I2
sa(dp453
S'name'
p454
NsS'ipaddr'
p455
V127.0.0.1
p456
sS'session_id'
p457
I29326085
sS'port'
p458
I5002
sS'score'
p459
I120
sS'id'
p460
NsS'tank_id'
p461
I2
saasV7225380
p462
(lp463
S'._._._._._._._._._._.\n| . | ._._._._. | . |\n| | ._._._._._._. | |\n| | ._._. . ._._. | |\n|_| |   . | .   | |_|\n| ._| ._| | |_. |_. |\n|_._._._. | ._._._._|\n|_. . |  ._.  | ._. |\n| ._| |  ._.  | | | |\n| | . |_.   ._|     |\n|_._|_._._._._._|_|_|'
p464
a(lp465
(dp466
S'name'
p467
NsS'ipaddr'
p468
V127.0.0.1
p469
sS'session_id'
p470
I35189938
sS'port'
p471
I5001
sS'score'
p472
I-1
sS'id'
p473
NsS'tank_id'
p474
I2
sa(dp475
S'name'
p476
NsS'ipaddr'
p477
V127.0.0.1
p478
sS'session_id'
p479
I65603867
sS'port'
p480
I5002
sS'score'
p481
I-1
sS'id'
p482
NsS'tank_id'
p483
I2
saasV4471264
p484
(lp485
S'._._._._._._._._._._.\n|   | | | | | | |   |\n|_.               ._|\n|_.     ._._.     ._|\n|_.   .   |   .   ._|\n|_.   |_.   ._|   ._|\n|_.   |   .   |   ._|\n|_.     ._|_.     ._|\n|_.               ._|\n|   . . . . . . .   |\n|_._|_|_|_|_|_|_|_._|'
p486
a(lp487
(dp488
S'name'
p489
S'GUEST2'
p490
sS'ipaddr'
p491
V127.0.0.1
p492
sS'session_id'
p493
I66757248
sS'port'
p494
I5001
sS'score'
p495
I-1
sS'id'
p496
NsS'tank_id'
p497
I2
sa(dp498
S'name'
p499
S'GUEST1'
p500
sS'ipaddr'
p501
V127.0.0.1
p502
sS'session_id'
p503
I16040000
sS'port'
p504
I5002
sS'score'
p505
I-1
sS'id'
p506
NsS'tank_id'
p507
I2
saaI00
asV45807265
p508
(lp509
S'._._._._._._._._._._.\n| . . ._.   |     . |\n|_| |       | ._._| |\n| ._| ._.   ._|   | |\n| ._._._._._| . ._| |\n| . | ._._._._| . | |\n| | | |   .     | . |\n| | | |   |   ._. | |\n| | | |   |   ._|   |\n| ._| |_. |_._._._. |\n|_._._._._._._._._._|'
p510
a(lp511
(dp512
S'name'
p513
NsS'ipaddr'
p514
V127.0.0.1
p515
sS'session_id'
p516
I29892197
sS'port'
p517
I5001
sS'score'
p518
I0
sS'id'
p519
NsS'tank_id'
p520
I2
sa(dp521
S'name'
p522
NsS'ipaddr'
p523
V127.0.0.1
p524
sS'session_id'
p525
I79720406
sS'port'
p526
I5002
sS'score'
p527
I0
sS'id'
p528
NsS'tank_id'
p529
I2
sa(dp530
S'name'
p531
NsS'ipaddr'
p532
V127.0.0.1
p533
sS'session_id'
p534
I23163447
sS'port'
p535
I5003
sS'score'
p536
I945
sS'id'
p537
NsS'tank_id'
p538
I2
saasV74416424
p539
(lp540
S'._._._._._._._._._._.\n|   ._._.   ._._.   |\n|     |     |_. |   |\n|     |     |   |   |\n|     |     |   |   |\n|                   |\n|   ._. .   . ._.   |\n|   | | |   |_|     |\n|   | | |   |_.     |\n|   | |_|   | |_.   |\n|_._._._._._._._._._|'
p541
a(lp542
(dp543
S'name'
p544
NsS'ipaddr'
p545
V127.0.0.1
p546
sS'session_id'
p547
I97698682
sS'port'
p548
I5002
sS'score'
p549
I225
sS'id'
p550
NsS'tank_id'
p551
I2
sa(dp552
S'name'
p553
S'USER'
p554
sS'ipaddr'
p555
V127.0.0.1
p556
sS'session_id'
p557
I11268628
sS'port'
p558
I5001
sS'score'
p559
I0
sS'id'
p560
V1000
p561
sS'tank_id'
p562
I2
saasV21580100
p563
(lp564
S'._._._._._._._._._._.\n|   |_. ._._. ._|   |\n|_.   |_.   ._|   ._|\n| |_.   |   |   ._| |\n| . |   ._._.   | . |\n| |               | |\n| | .   ._._.   . | |\n| ._|   .   .   |_. |\n|_|   ._|   |_.   |_|\n|   ._| ._._. |_.   |\n|_._|_._._._._._|_._|'
p565
a(lp566
(dp567
S'name'
p568
NsS'ipaddr'
p569
V127.0.0.1
p570
sS'session_id'
p571
I31411490
sS'port'
p572
I5001
sS'score'
p573
I-1
sS'id'
p574
NsS'tank_id'
p575
I2
sa(dp576
S'name'
p577
NsS'ipaddr'
p578
V127.0.0.1
p579
sS'session_id'
p580
I41874829
sS'port'
p581
I5002
sS'score'
p582
I-1
sS'id'
p583
NsS'tank_id'
p584
I2
saasV77250129
p585
(lp586
S'._._._._._._._._._._.\n| .               . |\n| |   ._.   ._.   | |\n| |   |       |   | |\n| |               | |\n|_._._._. . ._._._._|\n| ._. | ._| | ._._. |\n|_. |_._. | | | . | |\n| ._| ._._|_._._| | |\n| | . | . | ._._._| |\n|_._|_._|_._._._._._|'
p587
a(lp588
(dp589
S'name'
p590
S'GUEST2'
p591
sS'ipaddr'
p592
V127.0.0.1
p593
sS'session_id'
p594
I27881909
sS'port'
p595
I5002
sS'score'
p596
I-1
sS'id'
p597
NsS'tank_id'
p598
I2
sa(dp599
S'name'
p600
S'GUEST1'
p601
sS'ipaddr'
p602
V127.0.0.1
p603
sS'session_id'
p604
I53831882
sS'port'
p605
I5001
sS'score'
p606
I-1
sS'id'
p607
NsS'tank_id'
p608
I2
saaI00
asV95893109
p609
(lp610
S'._._._._._._._._._._.\n|   | | | | | | |   |\n|_.               ._|\n|_.     ._._.     ._|\n|_.   .   |   .   ._|\n|_.   |_.   ._|   ._|\n|_.   |   .   |   ._|\n|_.     ._|_.     ._|\n|_.               ._|\n|   . . . . . . .   |\n|_._|_|_|_|_|_|_|_._|'
p611
a(lp612
(dp613
S'name'
p614
S'GUEST2'
p615
sS'ipaddr'
p616
V127.0.0.1
p617
sS'session_id'
p618
I53957872
sS'port'
p619
I5001
sS'score'
p620
I-1
sS'id'
p621
NsS'tank_id'
p622
I2
sa(dp623
S'name'
p624
S'GUEST1'
p625
sS'ipaddr'
p626
V127.0.0.1
p627
sS'session_id'
p628
I17269767
sS'port'
p629
I5002
sS'score'
p630
I-1
sS'id'
p631
NsS'tank_id'
p632
I2
saaI00
asV8352213
p633
(lp634
S'._._._._._._._._._._.\n| . . ._. . ._._. . |\n| | | | . |   ._. | |\n| ._|_._| | ._|   | |\n| ._._._._.   ._._| |\n| . | . ._._._| ._._|\n| | | | | ._. | |   |\n| . . . . ._|   |_. |\n| | | | | | ._._| . |\n| ._| |_. |_._._._| |\n|_._._._._._._._._._|'
p635
a(lp636
(dp637
S'name'
p638
NsS'ipaddr'
p639
V127.0.0.1
p640
sS'session_id'
p641
I40371810
sS'port'
p642
I5001
sS'score'
p643
I-1
sS'id'
p644
NsS'tank_id'
p645
I2
sa(dp646
S'name'
p647
NsS'ipaddr'
p648
V127.0.0.1
p649
sS'session_id'
p650
I17120194
sS'port'
p651
I5002
sS'score'
p652
I-1
sS'id'
p653
NsS'tank_id'
p654
I2
saasV56607680
p655
(lp656
S'._._._._._._._._._._.\n|   ._._.   ._._.   |\n|     |     |_. |   |\n|     |     |   |   |\n|     |     |   |   |\n|                   |\n|   ._. .   . ._.   |\n|   | | |   |_|     |\n|   | | |   |_.     |\n|   | |_|   | |_.   |\n|_._._._._._._._._._|'
p657
a(lp658
(dp659
S'name'
p660
NsS'ipaddr'
p661
V127.0.0.1
p662
sS'session_id'
p663
I15794897
sS'port'
p664
I5003
sS'score'
p665
I-1
sS'id'
p666
NsS'tank_id'
p667
I2
sa(dp668
S'name'
p669
NsS'ipaddr'
p670
V127.0.0.1
p671
sS'session_id'
p672
I50702180
sS'port'
p673
I5001
sS'score'
p674
I0
sS'id'
p675
NsS'tank_id'
p676
I2
sa(dp677
S'name'
p678
NsS'ipaddr'
p679
V127.0.0.1
p680
sS'session_id'
p681
I14934299
sS'port'
p682
I5002
sS'score'
p683
I450
sS'id'
p684
NsS'tank_id'
p685
I2
saasV0
p686
(lp687
S'._._._._._._._._._._.\n| ._._._.   ._._._. |\n| | ._.       ._. | |\n| | |_.       ._| | |\n| |_._._.   ._._._| |\n|                   |\n| ._._._.   ._._._. |\n| |     |   |     | |\n| |   ._|   |_.   | |\n| |_._._.   ._._._| |\n|_._._._._._._._._._|'
p688
a(lp689
(dp690
S'name'
p691
NsS'ipaddr'
p692
V127.0.0.1
p693
sS'session_id'
p694
I10551696
sS'port'
p695
I5001
sS'score'
p696
I0
sS'id'
p697
NsS'tank_id'
p698
I2
sa(dp699
S'name'
p700
NsS'ipaddr'
p701
V127.0.0.1
p702
sS'session_id'
p703
I90651377
sS'port'
p704
I5002
sS'score'
p705
I0
sS'id'
p706
NsS'tank_id'
p707
I2
saasV77970181
p708
(lp709
S'._._._._._._._._._._.\n| . | ._._._._. | . |\n| | ._._._._._._. | |\n| | ._._. . ._._. | |\n|_| |   . | .   | |_|\n| ._| ._| | |_. |_. |\n|_._._._. | ._._._._|\n|_. . |  ._.  | ._. |\n| ._| |  ._.  | | | |\n| | . |_.   ._|     |\n|_._|_._._._._._|_|_|'
p710
a(lp711
(dp712
S'name'
p713
NsS'ipaddr'
p714
V127.0.0.1
p715
sS'session_id'
p716
I99862257
sS'port'
p717
I5001
sS'score'
p718
I-1
sS'id'
p719
NsS'tank_id'
p720
I2
sa(dp721
S'name'
p722
NsS'ipaddr'
p723
V127.0.0.1
p724
sS'session_id'
p725
I65981634
sS'port'
p726
I5002
sS'score'
p727
I-1
sS'id'
p728
NsS'tank_id'
p729
I2
saasV50892810
p730
(lp731
S'._._._._._._._._._._.\n| ._._._.   ._._._. |\n| | ._._.   ._._. | |\n| | | ._.   ._. | | |\n| | | |       | | | |\n|                   |\n| . . .       . . . |\n| | | |_.   ._| | | |\n| | |_._.   ._._| | |\n| |_._._.   ._._._| |\n|_._._._._._._._._._|'
p732
a(lp733
(dp734
S'name'
p735
NsS'ipaddr'
p736
V192.168.1.37
p737
sS'session_id'
p738
I88412821
sS'port'
p739
I8800
sS'score'
p740
I405
sS'id'
p741
NsS'tank_id'
p742
I4
sa(dp743
S'name'
p744
NsS'ipaddr'
p745
V192.168.1.38
p746
sS'session_id'
p747
I27986718
sS'port'
p748
I8800
sS'score'
p749
I120
sS'id'
p750
NsS'tank_id'
p751
I2
saasV98420160
p752
(lp753
S'._._._._._._._._._._.\n|                   |\n|   ._._._._._._.   |\n|   |           |   |\n|   |   . ._.       |\n|   |   |   |   .   |\n|       |_. |   |   |\n|   .           |   |\n|   |_._._._._._|   |\n|                   |\n|_._._._._._._._._._|'
p754
a(lp755
(dp756
S'name'
p757
S'GUEST2'
p758
sS'ipaddr'
p759
V127.0.0.1
p760
sS'session_id'
p761
I53720959
sS'port'
p762
I5001
sS'score'
p763
I-1
sS'id'
p764
NsS'tank_id'
p765
I2
sa(dp766
S'name'
p767
S'GUEST1'
p768
sS'ipaddr'
p769
V127.0.0.1
p770
sS'session_id'
p771
I96679735
sS'port'
p772
I5002
sS'score'
p773
I-1
sS'id'
p774
NsS'tank_id'
p775
I2
saaI00
asV50086205
p776
(lp777
S'._._._._._._._._._._.\n|   |_. ._._. ._|   |\n|_.   |_.   ._|   ._|\n| |_.   |   |   ._| |\n| . |   ._._.   | . |\n| |               | |\n| | .   ._._.   . | |\n| ._|   .   .   |_. |\n|_|   ._|   |_.   |_|\n|   ._| ._._. |_.   |\n|_._|_._._._._._|_._|'
p778
a(lp779
(dp780
S'name'
p781
NsS'ipaddr'
p782
V192.168.1.38
p783
sS'session_id'
p784
I51987697
sS'port'
p785
I8800
sS'score'
p786
I105
sS'id'
p787
NsS'tank_id'
p788
I2
sa(dp789
S'name'
p790
NsS'ipaddr'
p791
V192.168.1.37
p792
sS'session_id'
p793
I70998567
sS'port'
p794
I8800
sS'score'
p795
I0
sS'id'
p796
NsS'tank_id'
p797
I2
saasV97562977
p798
(lp799
S'._._._._._._._._._._.\n| .               . |\n| |   ._.   ._.   | |\n| |   |       |   | |\n| |               | |\n|_._._._. . ._._._._|\n| ._. | ._| | ._._. |\n|_. |_._. | | | . | |\n| ._| ._._|_._._| | |\n| | . | . | ._._._| |\n|_._|_._|_._._._._._|'
p800
a(lp801
(dp802
S'name'
p803
NsS'ipaddr'
p804
V127.0.0.1
p805
sS'session_id'
p806
I1331005
sS'port'
p807
I5001
sS'score'
p808
I0
sS'id'
p809
NsS'tank_id'
p810
I2
sa(dp811
S'name'
p812
NsS'ipaddr'
p813
V127.0.0.1
p814
sS'session_id'
p815
I46976877
sS'port'
p816
I5002
sS'score'
p817
I150
sS'id'
p818
NsS'tank_id'
p819
I2
saasV74058517
p820
(lp821
S'._._._._._._._._._._.\n| . . . .   . . . . |\n| | | | |   | | | | |\n| | | | |   | | | | |\n| ._._._.   ._._._. |\n|_._. .       . ._._|\n|   | | .   . | |   |\n|   | | |   | | |   |\n|   | | |_._| | |   |\n|   | |       | |   |\n|_._._|_._._._|_._._|'
p822
a(lp823
(dp824
S'name'
p825
S'GUEST2'
p826
sS'ipaddr'
p827
V127.0.0.1
p828
sS'session_id'
p829
I13927596
sS'id'
p830
NsS'score'
p831
I255
sS'deadtime'
p832
F2147483647.0
sS'port'
p833
I5001
sS'tank_id'
p834
I2
sa(dp835
S'name'
p836
S'GUEST1'
p837
sS'ipaddr'
p838
V127.0.0.1
p839
sS'session_id'
p840
I91531502
sS'port'
p841
I5002
sS'score'
p842
I0
sS'deadtime'
p843
F2147483647.0
sS'id'
p844
NsS'tank_id'
p845
I2
saaI01
asV26094612
p846
(lp847
S'._._._._._._._._._._.\n| ._._._._.     ._. |\n| |   | |     . | | |\n| |_. ._.   ._|_|   |\n| |_. |     | |   . |\n| |     .   |   ._| |\n|     . |     ._| . |\n|   ._|_|   ._| . | |\n| . | |   ._| ._| | |\n| |_|   ._| ._._._| |\n|_._._._._._._._._._|'
p848
a(lp849
(dp850
S'name'
p851
NsS'ipaddr'
p852
V127.0.0.1
p853
sS'session_id'
p854
I94880848
sS'port'
p855
I5001
sS'score'
p856
I-1
sS'id'
p857
NsS'tank_id'
p858
I2
sa(dp859
S'name'
p860
NsS'ipaddr'
p861
V127.0.0.1
p862
sS'session_id'
p863
I15781365
sS'port'
p864
I5002
sS'score'
p865
I-1
sS'id'
p866
NsS'tank_id'
p867
I2
saasV62308157
p868
(lp869
S'._._._._._._._._._._.\n|_. ._. ._. ._. ._. |\n| ._._._. ._._._. ._|\n|_. ._._._. ._._._. |\n| ._. ._. ._. ._. ._|\n|_.   ._._._._.   ._|\n|_. ._._.   ._._. ._|\n| ._._._.   ._._._. |\n|_.   ._._._._.   ._|\n|   ._._.   ._._.   |\n|_._._._._._._._._._|'
p870
a(lp871
(dp872
S'name'
p873
S'USER'
p874
sS'ipaddr'
p875
V192.168.1.36
p876
sS'session_id'
p877
I4785421
sS'port'
p878
I8800
sS'score'
p879
I-1
sS'id'
p880
V1000
p881
sS'tank_id'
p882
I2
sa(dp883
S'name'
p884
S'GUEST1'
p885
sS'ipaddr'
p886
V127.0.0.1
p887
sS'session_id'
p888
I40564917
sS'port'
p889
I5001
sS'score'
p890
I0
sS'id'
p891
NsS'tank_id'
p892
I2
saasV17447428
p893
(lp894
S'._._._._._._._._._._.\n|   | | | | | | |   |\n|_.               ._|\n|_.     ._._.     ._|\n|_.   .   |   .   ._|\n|_.   |_.   ._|   ._|\n|_.   |   .   |   ._|\n|_.     ._|_.     ._|\n|_.               ._|\n|   . . . . . . .   |\n|_._|_|_|_|_|_|_|_._|'
p895
a(lp896
(dp897
S'name'
p898
S'GUEST2'
p899
sS'ipaddr'
p900
V127.0.0.1
p901
sS'session_id'
p902
I99178400
sS'port'
p903
I5001
sS'score'
p904
I-1
sS'id'
p905
NsS'tank_id'
p906
I2
sa(dp907
S'name'
p908
S'GUEST1'
p909
sS'ipaddr'
p910
V127.0.0.1
p911
sS'session_id'
p912
I97674165
sS'port'
p913
I5002
sS'score'
p914
I-1
sS'id'
p915
NsS'tank_id'
p916
I2
saaI00
asV59646999
p917
(lp918
S'._._._._._._._._._._.\n|   .   .   .   |   |\n| ._|_. |_._|_._._. |\n|   |   |   .   |   |\n|_._| ._._._|_._| ._|\n|   |   |   |   .   |\n| ._._._. ._. ._|_._|\n|   |   |   |   .   |\n|_._| ._|_. |_._| ._|\n|   .   |   |   |   |\n|_._|_._._._|_._._._|'
p919
a(lp920
(dp921
S'name'
p922
NsS'ipaddr'
p923
V127.0.0.1
p924
sS'session_id'
p925
I22159355
sS'port'
p926
I5001
sS'score'
p927
I-1
sS'id'
p928
NsS'tank_id'
p929
I2
sa(dp930
S'name'
p931
NsS'ipaddr'
p932
V127.0.0.1
p933
sS'session_id'
p934
I17409169
sS'port'
p935
I5002
sS'score'
p936
I-1
sS'id'
p937
NsS'tank_id'
p938
I2
saasV41987665
p939
(lp940
S'._._._._._._._._._._.\n|   |_. ._._. ._|   |\n|_.   |_.   ._|   ._|\n| |_.   |   |   ._| |\n| . |   ._._.   | . |\n| |               | |\n| | .   ._._.   . | |\n| ._|   .   .   |_. |\n|_|   ._|   |_.   |_|\n|   ._| ._._. |_.   |\n|_._|_._._._._._|_._|'
p941
a(lp942
(dp943
S'name'
p944
NsS'ipaddr'
p945
V127.0.0.1
p946
sS'session_id'
p947
I84020490
sS'port'
p948
I5001
sS'score'
p949
I0
sS'id'
p950
NsS'tank_id'
p951
I2
sa(dp952
S'name'
p953
NsS'ipaddr'
p954
V127.0.0.1
p955
sS'session_id'
p956
I50768198
sS'port'
p957
I5002
sS'score'
p958
I0
sS'id'
p959
NsS'tank_id'
p960
I2
sa(dp961
S'name'
p962
NsS'ipaddr'
p963
V127.0.0.1
p964
sS'session_id'
p965
I12836941
sS'port'
p966
I5003
sS'score'
p967
I1200
sS'id'
p968
NsS'tank_id'
p969
I2
saasV32105232
p970
(lp971
S'._._._._._._._._._._.\n| . . ._. . ._._. . |\n| | | | . |   ._. | |\n| ._|_._| | ._|   | |\n| ._._._._.   ._._| |\n| . | . ._._._| ._._|\n| | | | | ._. | |   |\n| . . . . ._|   |_. |\n| | | | | | ._._| . |\n| ._| |_. |_._._._| |\n|_._._._._._._._._._|'
p972
a(lp973
(dp974
S'name'
p975
S'USER'
p976
sS'ipaddr'
p977
V127.0.0.1
p978
sS'session_id'
p979
I91185648
sS'port'
p980
I5001
sS'score'
p981
I300
sS'id'
p982
V1000
p983
sS'tank_id'
p984
I2
sa(dp985
S'name'
p986
S'USER'
p987
sS'ipaddr'
p988
V127.0.0.1
p989
sS'session_id'
p990
I7994928
sS'port'
p991
I5002
sS'score'
p992
I255
sS'id'
p993
V1001
p994
sS'tank_id'
p995
I2
saasV45044211
p996
(lp997
S'._._._._._._._._._._.\n| . | ._._._._. | . |\n| | ._._._._._._. | |\n| | ._._. . ._._. | |\n|_| |   . | .   | |_|\n| ._| ._| | |_. |_. |\n|_._._._. | ._._._._|\n|_. . |  ._.  | ._. |\n| ._| |  ._.  | | | |\n| | . |_.   ._|     |\n|_._|_._._._._._|_|_|'
p998
a(lp999
(dp1000
S'name'
p1001
S'GUEST2'
p1002
sS'ipaddr'
p1003
V127.0.0.1
p1004
sS'session_id'
p1005
I20959875
sS'port'
p1006
I5001
sS'score'
p1007
I-1
sS'id'
p1008
NsS'tank_id'
p1009
I2
sa(dp1010
S'name'
p1011
S'GUEST1'
p1012
sS'ipaddr'
p1013
V127.0.0.1
p1014
sS'session_id'
p1015
I54275214
sS'port'
p1016
I5002
sS'score'
p1017
I-1
sS'id'
p1018
NsS'tank_id'
p1019
I2
saaI00
asV56635784
p1020
(lp1021
S'._._._._._._._._._._.\n|                   |\n| ._. ._.   ._. ._. |\n| | | | |   | | | | |\n|                   |\n|                   |\n| ._._._._._._._._. |\n|     |       |     |\n|     |   .   |     |\n|         |         |\n|_._._._._|_._._._._|'
p1022
a(lp1023
(dp1024
S'name'
p1025
S'GUEST2'
p1026
sS'ipaddr'
p1027
V127.0.0.1
p1028
sS'session_id'
p1029
I15650388
sS'id'
p1030
NsS'score'
p1031
I0
sS'deadtime'
p1032
F2147483647.0
sS'port'
p1033
I5002
sS'tank_id'
p1034
I2
sa(dp1035
S'name'
p1036
S'GUEST1'
p1037
sS'ipaddr'
p1038
V127.0.0.1
p1039
sS'session_id'
p1040
I68541420
sS'port'
p1041
I5001
sS'score'
p1042
I0
sS'deadtime'
p1043
F2147483647.0
sS'id'
p1044
NsS'tank_id'
p1045
I2
saaI01
asV9665660
p1046
(lp1047
S'._._._._._._._._._._.\n| . . ._.   |     . |\n|_| |       | ._._| |\n| ._| ._.   ._|   | |\n| ._._._._._| . ._| |\n| . | ._._._._| . | |\n| | | |   .     | . |\n| | | |   |   ._. | |\n| | | |   |   ._|   |\n| ._| |_. |_._._._. |\n|_._._._._._._._._._|'
p1048
a(lp1049
(dp1050
S'name'
p1051
NsS'ipaddr'
p1052
V127.0.0.1
p1053
sS'session_id'
p1054
I38963136
sS'port'
p1055
I5001
sS'score'
p1056
I0
sS'id'
p1057
NsS'tank_id'
p1058
I2
sa(dp1059
S'name'
p1060
NsS'ipaddr'
p1061
V127.0.0.1
p1062
sS'session_id'
p1063
I51933658
sS'port'
p1064
I5002
sS'score'
p1065
I-1
sS'id'
p1066
NsS'tank_id'
p1067
I2
saasV79637824
p1068
(lp1069
S'._._._._._._._._._._.\n| ._. ._. | ._. ._. |\n| | ._. | | |     | |\n|   |_. |_.         |\n| |_._.   | |_. ._| |\n|_._. |_._|_._. ._._|\n| ._._._._|         |\n| | . ._. |         |\n| | | | | .         |\n|_._|_. | |         |\n|_._._._._|_._._._._|'
p1070
a(lp1071
(dp1072
S'name'
p1073
NsS'ipaddr'
p1074
V127.0.0.1
p1075
sS'session_id'
p1076
I19981785
sS'port'
p1077
I5001
sS'score'
p1078
I-1
sS'id'
p1079
NsS'tank_id'
p1080
I2
sa(dp1081
S'name'
p1082
NsS'ipaddr'
p1083
V127.0.0.1
p1084
sS'session_id'
p1085
I80516193
sS'port'
p1086
I5002
sS'score'
p1087
I-1
sS'id'
p1088
NsS'tank_id'
p1089
I2
saasV93990784
p1090
(lp1091
S'._._._._._._._._._._.\n|                   |\n|   ._._._._._._.   |\n|   |           |   |\n|   |   . ._.       |\n|   |   |   |   .   |\n|       |_. |   |   |\n|   .           |   |\n|   |_._._._._._|   |\n|                   |\n|_._._._._._._._._._|'
p1092
a(lp1093
(dp1094
S'name'
p1095
S'GUEST2'
p1096
sS'ipaddr'
p1097
V127.0.0.1
p1098
sS'session_id'
p1099
I96539118
sS'port'
p1100
I5001
sS'score'
p1101
I150
sS'deadtime'
p1102
F2147483647.0
sS'id'
p1103
NsS'tank_id'
p1104
I2
sa(dp1105
S'name'
p1106
S'GUEST1'
p1107
sS'ipaddr'
p1108
V127.0.0.1
p1109
sS'session_id'
p1110
I38375382
sS'id'
p1111
NsS'score'
p1112
I0
sS'deadtime'
p1113
F2147483647.0
sS'port'
p1114
I5002
sS'tank_id'
p1115
I2
saaI01
asV22314880
p1116
(lp1117
S'._._._._._._._._._._.\n| .       |       . |\n| |_._.   |   ._._| |\n| | ._.   |   ._. | |\n| | | ._.   ._. | | |\n| |   |       |   | |\n| | ._. ._._. ._. | |\n| | |   | . |   | | |\n| |_._.   |   ._._| |\n| |       |       | |\n|_._._._._|_._._._._|'
p1118
a(lp1119
(dp1120
S'name'
p1121
NsS'ipaddr'
p1122
V127.0.0.1
p1123
sS'session_id'
p1124
I55459408
sS'port'
p1125
I5001
sS'score'
p1126
I-1
sS'id'
p1127
NsS'tank_id'
p1128
I2
sa(dp1129
S'name'
p1130
NsS'ipaddr'
p1131
V127.0.0.1
p1132
sS'session_id'
p1133
I74479114
sS'port'
p1134
I5003
sS'score'
p1135
I-1
sS'id'
p1136
NsS'tank_id'
p1137
I2
sa(dp1138
S'name'
p1139
NsS'ipaddr'
p1140
V127.0.0.1
p1141
sS'session_id'
p1142
I14384758
sS'port'
p1143
I5002
sS'score'
p1144
I-1
sS'id'
p1145
NsS'tank_id'
p1146
I2
saasV39790331
p1147
(lp1148
S'._._._._._._._._._._.\n|   | | | | | | |   |\n|_.               ._|\n|_.     ._._.     ._|\n|_.   .   |   .   ._|\n|_.   |_.   ._|   ._|\n|_.   |   .   |   ._|\n|_.     ._|_.     ._|\n|_.               ._|\n|   . . . . . . .   |\n|_._|_|_|_|_|_|_|_._|'
p1149
a(lp1150
(dp1151
S'name'
p1152
S'GUEST2'
p1153
sS'ipaddr'
p1154
V127.0.0.1
p1155
sS'session_id'
p1156
I30149109
sS'id'
p1157
NsS'score'
p1158
I405
sS'deadtime'
p1159
F2147483647.0
sS'port'
p1160
I5001
sS'tank_id'
p1161
I2
sa(dp1162
S'name'
p1163
S'GUEST1'
p1164
sS'ipaddr'
p1165
V127.0.0.1
p1166
sS'session_id'
p1167
I86796548
sS'port'
p1168
I5002
sS'score'
p1169
I0
sS'deadtime'
p1170
F1412268088.45
sS'id'
p1171
NsS'tank_id'
p1172
I2
saaI01
asV24488388
p1173
(lp1174
S'._._._._._._._._._._.\n| .       |       . |\n| |_._.   |   ._._| |\n| | ._.   |   ._. | |\n| | | ._.   ._. | | |\n| |   |       |   | |\n| | ._. ._._. ._. | |\n| | |   | . |   | | |\n| |_._.   |   ._._| |\n| |       |       | |\n|_._._._._|_._._._._|'
p1175
a(lp1176
(dp1177
S'name'
p1178
S'GUEST2'
p1179
sS'ipaddr'
p1180
V127.0.0.1
p1181
sS'session_id'
p1182
I77856177
sS'port'
p1183
I5001
sS'score'
p1184
I-1
sS'id'
p1185
NsS'tank_id'
p1186
I2
sa(dp1187
S'name'
p1188
S'GUEST1'
p1189
sS'ipaddr'
p1190
V127.0.0.1
p1191
sS'session_id'
p1192
I49373425
sS'port'
p1193
I5002
sS'score'
p1194
I-1
sS'id'
p1195
NsS'tank_id'
p1196
I2
saaI00
asV71587400
p1197
(lp1198
S'._._._._._._._._._._.\n| ._. ._. | ._. ._. |\n| | ._. | | |     | |\n|   |_. |_.         |\n| |_._.   | |_. ._| |\n|_._. |_._|_._. ._._|\n| ._._._._|         |\n| | . ._. |         |\n| | | | | .         |\n|_._|_. | |         |\n|_._._._._|_._._._._|'
p1199
a(lp1200
(dp1201
S'name'
p1202
S'GUEST2'
p1203
sS'ipaddr'
p1204
V127.0.0.1
p1205
sS'session_id'
p1206
I56689522
sS'port'
p1207
I5001
sS'score'
p1208
I0
sS'id'
p1209
NsS'tank_id'
p1210
I2
sa(dp1211
S'name'
p1212
S'GUEST1'
p1213
sS'ipaddr'
p1214
V127.0.0.1
p1215
sS'session_id'
p1216
I43271184
sS'port'
p1217
I5002
sS'score'
p1218
I465
sS'id'
p1219
NsS'tank_id'
p1220
I2
saasV14465935
p1221
(lp1222
S'._._._._._._._._._._.\n|   | | | | | | |   |\n|_.               ._|\n|_.     ._._.     ._|\n|_.   .   |   .   ._|\n|_.   |_.   ._|   ._|\n|_.   |   .   |   ._|\n|_.     ._|_.     ._|\n|_.               ._|\n|   . . . . . . .   |\n|_._|_|_|_|_|_|_|_._|'
p1223
a(lp1224
(dp1225
S'name'
p1226
S'GUEST2'
p1227
sS'ipaddr'
p1228
V127.0.0.1
p1229
sS'session_id'
p1230
I47639618
sS'port'
p1231
I5002
sS'score'
p1232
I405
sS'id'
p1233
NsS'tank_id'
p1234
I2
sa(dp1235
S'name'
p1236
S'GUEST1'
p1237
sS'ipaddr'
p1238
V127.0.0.1
p1239
sS'session_id'
p1240
I46574765
sS'port'
p1241
I5001
sS'score'
p1242
I0
sS'id'
p1243
NsS'tank_id'
p1244
I2
saasV91904636
p1245
(lp1246
S'._._._._._._._._._._.\n| ._. ._. | ._. ._. |\n| | ._. | | |     | |\n|   |_. |_.         |\n| |_._.   | |_. ._| |\n|_._. |_._|_._. ._._|\n| ._._._._|         |\n| | . ._. |         |\n| | | | | .         |\n|_._|_. | |         |\n|_._._._._|_._._._._|'
p1247
a(lp1248
(dp1249
S'name'
p1250
NsS'ipaddr'
p1251
V192.168.1.39
p1252
sS'session_id'
p1253
I60899194
sS'port'
p1254
I8800
sS'score'
p1255
I660
sS'id'
p1256
NsS'tank_id'
p1257
I2
sa(dp1258
S'name'
p1259
NsS'ipaddr'
p1260
V192.168.1.38
p1261
sS'session_id'
p1262
I43090093
sS'port'
p1263
I8800
sS'score'
p1264
I45
sS'id'
p1265
NsS'tank_id'
p1266
I1
sa(dp1267
S'name'
p1268
NsS'ipaddr'
p1269
V192.168.1.37
p1270
sS'session_id'
p1271
I47430277
sS'port'
p1272
I8800
sS'score'
p1273
I960
sS'id'
p1274
NsS'tank_id'
p1275
I1
sa(dp1276
S'name'
p1277
NsS'ipaddr'
p1278
V192.168.1.35
p1279
sS'session_id'
p1280
I57960739
sS'port'
p1281
I8800
sS'score'
p1282
I0
sS'id'
p1283
NsS'tank_id'
p1284
I2
sa(dp1285
S'name'
p1286
NsS'ipaddr'
p1287
V192.168.1.36
p1288
sS'session_id'
p1289
I13568737
sS'port'
p1290
I8800
sS'score'
p1291
I0
sS'id'
p1292
NsS'tank_id'
p1293
I2
saasV10005042
p1294
(lp1295
S'._._._._._._._._._._.\n|   |  _._  |  _._  |\n|   |       |       |\n|   |       |       | \n|   |_.   ._|_.   ._|\n|   |   .   |   .   |\n|_.   ._|_.   ._|   |\n|       |       |   |\n|       |       |   |\n|  _._  |  _._  |   |\n|_._._._|_._._._|_._|'
p1296
a(lp1297
(dp1298
S'name'
p1299
S'USER'
p1300
sS'ipaddr'
p1301
V192.168.1.38
p1302
sS'session_id'
p1303
I63927500
sS'port'
p1304
I8800
sS'score'
p1305
I680
sS'id'
p1306
V1000
p1307
sS'tank_id'
p1308
I2
sa(dp1309
S'name'
p1310
NsS'ipaddr'
p1311
V192.168.1.37
p1312
sS'session_id'
p1313
I14389500
sS'port'
p1314
I8800
sS'score'
p1315
I400
sS'id'
p1316
NsS'tank_id'
p1317
I1
saasV16226401
p1318
(lp1319
S'._._._._._._._._._._.\n| . . . .   . . . . |\n| | | | |   | | | | |\n| | | | |   | | | | |\n| ._._._.   ._._._. |\n|_._. .       . ._._|\n|   | | .   . | |   |\n|   | | |   | | |   |\n|   | | |_._| | |   |\n|   | |       | |   |\n|_._._|_._._._|_._._|'
p1320
a(lp1321
(dp1322
S'name'
p1323
S'USER'
p1324
sS'ipaddr'
p1325
V192.168.1.37
p1326
sS'session_id'
p1327
I61084301
sS'port'
p1328
I8800
sS'score'
p1329
I405
sS'id'
p1330
V1001
p1331
sS'tank_id'
p1332
I2
sa(dp1333
S'name'
p1334
S'USER'
p1335
sS'ipaddr'
p1336
V192.168.1.38
p1337
sS'session_id'
p1338
I51708177
sS'port'
p1339
I8800
sS'score'
p1340
I300
sS'id'
p1341
V1000
p1342
sS'tank_id'
p1343
I2
saasV55318351
p1344
(lp1345
S'._._._._._._._._._._.\n| ._._._.   ._._._. |\n| | ._._.   ._._. | |\n| | | ._.   ._. | | |\n| | | |       | | | |\n|                   |\n| . . .       . . . |\n| | | |_.   ._| | | |\n| | |_._.   ._._| | |\n| |_._._.   ._._._| |\n|_._._._._._._._._._|'
p1346
a(lp1347
(dp1348
S'name'
p1349
NsS'ipaddr'
p1350
V192.168.1.38
p1351
sS'session_id'
p1352
I51501711
sS'port'
p1353
I8800
sS'score'
p1354
I480
sS'id'
p1355
NsS'tank_id'
p1356
I2
sa(dp1357
S'name'
p1358
NsS'ipaddr'
p1359
V192.168.1.35
p1360
sS'session_id'
p1361
I95465445
sS'port'
p1362
I8800
sS'score'
p1363
I0
sS'id'
p1364
NsS'tank_id'
p1365
I2
sa(dp1366
S'name'
p1367
NsS'ipaddr'
p1368
V192.168.1.36
p1369
sS'session_id'
p1370
I88108202
sS'port'
p1371
I8800
sS'score'
p1372
I300
sS'id'
p1373
NsS'tank_id'
p1374
I0
sa(dp1375
S'name'
p1376
NsS'ipaddr'
p1377
V192.168.1.37
p1378
sS'session_id'
p1379
I28401186
sS'port'
p1380
I8800
sS'score'
p1381
I510
sS'id'
p1382
NsS'tank_id'
p1383
I2
saasV91764877
p1384
(lp1385
S'._._._._._._._._._._.\n| .               . |\n| |   ._.   ._.   | |\n| |   |       |   | |\n| |               | |\n|_._._._. . ._._._._|\n| ._. | ._| | ._._. |\n|_. |_._. | | | . | |\n| ._| ._._|_._._| | |\n| | . | . | ._._._| |\n|_._|_._|_._._._._._|'
p1386
a(lp1387
(dp1388
S'name'
p1389
NsS'ipaddr'
p1390
V192.168.1.38
p1391
sS'session_id'
p1392
I94544687
sS'port'
p1393
I8800
sS'score'
p1394
I150
sS'id'
p1395
NsS'tank_id'
p1396
I2
sa(dp1397
S'name'
p1398
NsS'ipaddr'
p1399
V192.168.1.39
p1400
sS'session_id'
p1401
I46839567
sS'port'
p1402
I8800
sS'score'
p1403
I0
sS'id'
p1404
NsS'tank_id'
p1405
I2
sa(dp1406
S'name'
p1407
NsS'ipaddr'
p1408
V192.168.1.37
p1409
sS'session_id'
p1410
I73901775
sS'port'
p1411
I8800
sS'score'
p1412
I855
sS'id'
p1413
NsS'tank_id'
p1414
I2
saasV88222574
p1415
(lp1416
S'._._._._._._._._._._.\n|_. ._. ._. ._. ._. |\n| ._._._. ._._._. ._|\n|_. ._._._. ._._._. |\n| ._. ._. ._. ._. ._|\n|_.   ._._._._.   ._|\n|_. ._._.   ._._. ._|\n| ._._._.   ._._._. |\n|_.   ._._._._.   ._|\n|   ._._.   ._._.   |\n|_._._._._._._._._._|'
p1417
a(lp1418
(dp1419
S'name'
p1420
S'GUEST2'
p1421
sS'ipaddr'
p1422
V127.0.0.1
p1423
sS'session_id'
p1424
I64095378
sS'port'
p1425
I5001
sS'score'
p1426
I-1
sS'id'
p1427
NsS'tank_id'
p1428
I2
sa(dp1429
S'name'
p1430
S'GUEST1'
p1431
sS'ipaddr'
p1432
V127.0.0.1
p1433
sS'session_id'
p1434
I2489192
sS'port'
p1435
I5002
sS'score'
p1436
I-1
sS'id'
p1437
NsS'tank_id'
p1438
I2
saaI00
asV7723009
p1439
(lp1440
S'._._._._._._._._._._.\n|       |   . ._._. |\n|_.   ._|_._| | . | |\n| . . . |   . | | | |\n| | | | ._._|_._|_. |\n| |_._| .   | .   . |\n|_.   ._|_._. |_._| |\n| . . . . . | |   | |\n| | |_|_| | |_. . ._|\n| |_. | ._| | ._|_. |\n|_._._._._._._._._._|'
p1441
a(lp1442
(dp1443
S'name'
p1444
S'GUEST2'
p1445
sS'ipaddr'
p1446
V127.0.0.1
p1447
sS'session_id'
p1448
I47623870
sS'id'
p1449
NsS'score'
p1450
I120
sS'deadtime'
p1451
F2147483647.0
sS'port'
p1452
I5001
sS'tank_id'
p1453
I2
sa(dp1454
S'name'
p1455
S'GUEST1'
p1456
sS'ipaddr'
p1457
V127.0.0.1
p1458
sS'session_id'
p1459
I41909843
sS'port'
p1460
I5002
sS'score'
p1461
I0
sS'deadtime'
p1462
F2147483647.0
sS'id'
p1463
NsS'tank_id'
p1464
I2
saaI01
asV81256350
p1465
(lp1466
S'._._._._._._._._._._.\n|_. ._. ._. ._. ._. |\n| ._._._. ._._._. ._|\n|_. ._._._. ._._._. |\n| ._. ._. ._. ._. ._|\n|_.   ._._._._.   ._|\n|_. ._._.   ._._. ._|\n| ._._._.   ._._._. |\n|_.   ._._._._.   ._|\n|   ._._.   ._._.   |\n|_._._._._._._._._._|'
p1467
ag871
asV35735195
p1468
(lp1469
S'._._._._._._._._._._.\n| ._. ._. | ._. ._. |\n| | ._. | | |     | |\n|   |_. |_.         |\n| |_._.   | |_. ._| |\n|_._. |_._|_._. ._._|\n| ._._._._|         |\n| | . ._. |         |\n| | | | | .         |\n|_._|_. | |         |\n|_._._._._|_._._._._|'
p1470
a(lp1471
(dp1472
S'name'
p1473
NsS'ipaddr'
p1474
V127.0.0.1
p1475
sS'session_id'
p1476
I78896334
sS'port'
p1477
I5001
sS'score'
p1478
I0
sS'id'
p1479
NsS'tank_id'
p1480
I2
sa(dp1481
S'name'
p1482
NsS'ipaddr'
p1483
V127.0.0.1
p1484
sS'session_id'
p1485
I70415168
sS'port'
p1486
I5002
sS'score'
p1487
I270
sS'id'
p1488
NsS'tank_id'
p1489
I2
saasV17729092
p1490
(lp1491
S'._._._._._._._._._._.\n|                   |\n|   ._._._._._._.   |\n|   |           |   |\n|   |   . ._.       |\n|   |   |   |   .   |\n|       |_. |   |   |\n|   .           |   |\n|   |_._._._._._|   |\n|                   |\n|_._._._._._._._._._|'
p1492
a(lp1493
(dp1494
S'name'
p1495
NsS'ipaddr'
p1496
V127.0.0.1
p1497
sS'session_id'
p1498
I79630644
sS'port'
p1499
I5001
sS'score'
p1500
I1710
sS'id'
p1501
NsS'tank_id'
p1502
I2
sa(dp1503
S'name'
p1504
NsS'ipaddr'
p1505
V127.0.0.1
p1506
sS'session_id'
p1507
I91848146
sS'port'
p1508
I5002
sS'score'
p1509
I-1
sS'id'
p1510
NsS'tank_id'
p1511
I2
sa(dp1512
S'name'
p1513
NsS'ipaddr'
p1514
V127.0.0.1
p1515
sS'session_id'
p1516
I28069756
sS'port'
p1517
I5003
sS'score'
p1518
I-1
sS'id'
p1519
NsS'tank_id'
p1520
I2
saasV57497062
p1521
(lp1522
S'._._._._._._._._._._.\n| ._._._.   ._._._. |\n| | ._._.   ._._. | |\n| | | ._.   ._. | | |\n| | | |       | | | |\n|                   |\n| . . .       . . . |\n| | | |_.   ._| | | |\n| | |_._.   ._._| | |\n| |_._._.   ._._._| |\n|_._._._._._._._._._|'
p1523
a(lp1524
(dp1525
S'name'
p1526
NsS'ipaddr'
p1527
V192.168.1.36
p1528
sS'session_id'
p1529
I15157427
sS'port'
p1530
I8800
sS'score'
p1531
I-1
sS'id'
p1532
NsS'tank_id'
p1533
I2
sa(dp1534
S'name'
p1535
NsS'ipaddr'
p1536
V192.168.1.35
p1537
sS'session_id'
p1538
I55597961
sS'port'
p1539
I8800
sS'score'
p1540
I0
sS'id'
p1541
NsS'tank_id'
p1542
I2
sa(dp1543
S'name'
p1544
NsS'ipaddr'
p1545
V192.168.1.37
p1546
sS'session_id'
p1547
I12882661
sS'port'
p1548
I8800
sS'score'
p1549
I0
sS'id'
p1550
NsS'tank_id'
p1551
I2
saasV87200848
p1552
(lp1553
S'._._._._._._._._._._.\n| . . |_.   |_._.   |\n|_| | | ._. | ._._. |\n| ._|_._| | ._|_. | |\n| |_._._._._| ._._| |\n| . . . ._._._| ._._|\n| | | | | ._. | | . |\n| | | | ._| . |_._| |\n| | | | | | |_._| . |\n| ._| |_. |_._._._| |\n|_._._._._._._._._._|'
p1554
a(lp1555
(dp1556
S'name'
p1557
NsS'ipaddr'
p1558
V127.0.0.1
p1559
sS'session_id'
p1560
I78866948
sS'port'
p1561
I5001
sS'score'
p1562
I-1
sS'id'
p1563
NsS'tank_id'
p1564
I2
sa(dp1565
S'name'
p1566
NsS'ipaddr'
p1567
V127.0.0.1
p1568
sS'session_id'
p1569
I41014196
sS'port'
p1570
I5001
sS'score'
p1571
I0
sS'id'
p1572
NsS'tank_id'
p1573
I2
saasV89596256
p1574
(lp1575
S'._._._._._._._._._._.\n|   |_. ._._. ._|   |\n|_.   |_.   ._|   ._|\n| |_.   |   |   ._| |\n| . |   ._._.   | . |\n| |               | |\n| | .   ._._.   . | |\n| ._|   .   .   |_. |\n|_|   ._|   |_.   |_|\n|   ._| ._._. |_.   |\n|_._|_._._._._._|_._|'
p1576
a(lp1577
(dp1578
S'name'
p1579
NsS'ipaddr'
p1580
V127.0.0.1
p1581
sS'session_id'
p1582
I12193401
sS'port'
p1583
I5001
sS'score'
p1584
I-1
sS'id'
p1585
NsS'tank_id'
p1586
I2
sa(dp1587
S'name'
p1588
NsS'ipaddr'
p1589
V127.0.0.1
p1590
sS'session_id'
p1591
I30942434
sS'port'
p1592
I5002
sS'score'
p1593
I-1
sS'id'
p1594
NsS'tank_id'
p1595
I2
saasV58045004
p1596
(lp1597
S'._._._._._._._._._._.\n| . . ._.   |     . |\n|_| |       | ._._| |\n| ._| ._.   ._|   | |\n| ._._._._._| . ._| |\n| . | ._._._._| . | |\n| | | |   .     | . |\n| | | |   |   ._. | |\n| | | |   |   ._|   |\n| ._| |_. |_._._._. |\n|_._._._._._._._._._|'
p1598
a(lp1599
(dp1600
S'name'
p1601
NsS'ipaddr'
p1602
V127.0.0.1
p1603
sS'session_id'
p1604
I19385181
sS'port'
p1605
I5001
sS'score'
p1606
I0
sS'id'
p1607
NsS'tank_id'
p1608
I2
sa(dp1609
S'name'
p1610
NsS'ipaddr'
p1611
V127.0.0.1
p1612
sS'session_id'
p1613
I71686988
sS'port'
p1614
I5002
sS'score'
p1615
I0
sS'id'
p1616
NsS'tank_id'
p1617
I2
sa(dp1618
S'name'
p1619
NsS'ipaddr'
p1620
V127.0.0.1
p1621
sS'session_id'
p1622
I76434848
sS'port'
p1623
I5003
sS'score'
p1624
I585
sS'id'
p1625
NsS'tank_id'
p1626
I2
saasV69071652
p1627
(lp1628
S'._._._._._._._._._._.\n|   .   .   .   |   |\n| ._|_. |_._|_._._. |\n|   |   |   .   |   |\n|_._| ._._._|_._| ._|\n|   |   |   |   .   |\n| ._._._. ._. ._|_._|\n|   |   |   |   .   |\n|_._| ._|_. |_._| ._|\n|   .   |   |   |   |\n|_._|_._._._|_._._._|'
p1629
a(lp1630
(dp1631
S'name'
p1632
S'USER'
p1633
sS'ipaddr'
p1634
V127.0.0.1
p1635
sS'session_id'
p1636
I53965763
sS'port'
p1637
I5001
sS'score'
p1638
I0
sS'id'
p1639
V1001
p1640
sS'tank_id'
p1641
I2
sa(dp1642
S'name'
p1643
S'USER'
p1644
sS'ipaddr'
p1645
V127.0.0.1
p1646
sS'session_id'
p1647
I87856346
sS'port'
p1648
I5002
sS'score'
p1649
I0
sS'id'
p1650
V1000
p1651
sS'tank_id'
p1652
I2
saasV5172837
p1653
(lp1654
S'._._._._._._._._._._.\n| . . . .   . . . . |\n| | | | |   | | | | |\n| | | | |   | | | | |\n| ._._._.   ._._._. |\n|_._. .       . ._._|\n|   | | .   . | |   |\n|   | | |   | | |   |\n|   | | |_._| | |   |\n|   | |       | |   |\n|_._._|_._._._|_._._|'
p1655
a(lp1656
(dp1657
S'name'
p1658
S'GUEST2'
p1659
sS'ipaddr'
p1660
V127.0.0.1
p1661
sS'session_id'
p1662
I18834039
sS'port'
p1663
I5001
sS'score'
p1664
I-1
sS'id'
p1665
NsS'tank_id'
p1666
I2
sa(dp1667
S'name'
p1668
S'GUEST1'
p1669
sS'ipaddr'
p1670
V127.0.0.1
p1671
sS'session_id'
p1672
I5038251
sS'port'
p1673
I5002
sS'score'
p1674
I-1
sS'id'
p1675
NsS'tank_id'
p1676
I2
saaI00
asV65850247
p1677
(lp1678
S'._._._._._._._._._._.\n| . . ._.   |     . |\n|_| |       | ._._| |\n| ._| ._.   ._|   | |\n| ._._._._._| . ._| |\n| . | ._._._._| . | |\n| | | |   .     | . |\n| | | |   |   ._. | |\n| | | |   |   ._|   |\n| ._| |_. |_._._._. |\n|_._._._._._._._._._|'
p1679
a(lp1680
(dp1681
S'name'
p1682
NsS'ipaddr'
p1683
V127.0.0.1
p1684
sS'session_id'
p1685
I36535807
sS'port'
p1686
I5002
sS'score'
p1687
I0
sS'id'
p1688
NsS'tank_id'
p1689
I2
sa(dp1690
S'name'
p1691
NsS'ipaddr'
p1692
V127.0.0.1
p1693
sS'session_id'
p1694
I86341889
sS'port'
p1695
I5001
sS'score'
p1696
I0
sS'id'
p1697
NsS'tank_id'
p1698
I2
saasV99121667
p1699
(lp1700
S'._._._._._._._._._._.\n|_. ._. ._. ._. ._. |\n| ._._._. ._._._. ._|\n|_. ._._._. ._._._. |\n| ._. ._. ._. ._. ._|\n|_.   ._._._._.   ._|\n|_. ._._.   ._._. ._|\n| ._._._.   ._._._. |\n|_.   ._._._._.   ._|\n|   ._._.   ._._.   |\n|_._._._._._._._._._|'
p1701
a(lp1702
(dp1703
S'name'
p1704
NsS'ipaddr'
p1705
V127.0.0.1
p1706
sS'session_id'
p1707
I27526036
sS'port'
p1708
I5001
sS'score'
p1709
I-1
sS'id'
p1710
NsS'tank_id'
p1711
I2
sa(dp1712
S'name'
p1713
NsS'ipaddr'
p1714
V127.0.0.1
p1715
sS'session_id'
p1716
I71427959
sS'port'
p1717
I5002
sS'score'
p1718
I-1
sS'id'
p1719
NsS'tank_id'
p1720
I2
saasV83554085
p1721
(lp1722
S'._._._._._._._._._._.\n|   ._._.   ._._.   |\n|     |     |_. |   |\n|     |     |   |   |\n|     |     |   |   |\n|                   |\n|   ._. .   . ._.   |\n|   | | |   |_|     |\n|   | | |   |_.     |\n|   | |_|   | |_.   |\n|_._._._._._._._._._|'
p1723
a(lp1724
(dp1725
S'name'
p1726
S'GUEST2'
p1727
sS'ipaddr'
p1728
V127.0.0.1
p1729
sS'session_id'
p1730
I12270935
sS'port'
p1731
I5001
sS'score'
p1732
I0
sS'id'
p1733
NsS'tank_id'
p1734
I2
sa(dp1735
S'name'
p1736
S'GUEST1'
p1737
sS'ipaddr'
p1738
V127.0.0.1
p1739
sS'session_id'
p1740
I35126305
sS'port'
p1741
I5002
sS'score'
p1742
I0
sS'id'
p1743
NsS'tank_id'
p1744
I2
saasV2789754
p1745
(lp1746
S'._._._._._._._._._._.\n| . . ._.   |     . |\n|_| |       | ._._| |\n| ._| ._.   ._|   | |\n| ._._._._._| . ._| |\n| . | ._._._._| . | |\n| | | |   .     | . |\n| | | |   |   ._. | |\n| | | |   |   ._|   |\n| ._| |_. |_._._._. |\n|_._._._._._._._._._|'
p1747
a(lp1748
(dp1749
S'name'
p1750
S'USER'
p1751
sS'ipaddr'
p1752
V127.0.0.1
p1753
sS'session_id'
p1754
I450323
sS'port'
p1755
I5001
sS'score'
p1756
I-1
sS'id'
p1757
V1001
p1758
sS'tank_id'
p1759
I5
sa(dp1760
S'name'
p1761
S'USER'
p1762
sS'ipaddr'
p1763
V127.0.0.1
p1764
sS'session_id'
p1765
I19253029
sS'port'
p1766
I5002
sS'score'
p1767
I-1
sS'id'
p1768
V1000
p1769
sS'tank_id'
p1770
I0
saasV52801387
p1771
(lp1772
S'._._._._._._._._._._.\n|   |  _._  |  _._  |\n|   |       |       |\n|   |       |       | \n|   |_.   ._|_.   ._|\n|   |   .   |   .   |\n|_.   ._|_.   ._|   |\n|       |       |   |\n|       |       |   |\n|  _._  |  _._  |   |\n|_._._._|_._._._|_._|'
p1773
a(lp1774
(dp1775
S'name'
p1776
S'GUEST2'
p1777
sS'ipaddr'
p1778
V127.0.0.1
p1779
sS'session_id'
p1780
I29183129
sS'port'
p1781
I5001
sS'score'
p1782
I-1
sS'id'
p1783
NsS'tank_id'
p1784
I2
sa(dp1785
S'name'
p1786
S'USER'
p1787
sS'ipaddr'
p1788
V127.0.0.1
p1789
sS'session_id'
p1790
I32587635
sS'port'
p1791
I5003
sS'score'
p1792
I-1
sS'id'
p1793
V1001
p1794
sS'tank_id'
p1795
I2
sa(dp1796
S'name'
p1797
S'USER'
p1798
sS'ipaddr'
p1799
V127.0.0.1
p1800
sS'session_id'
p1801
I47511629
sS'port'
p1802
I5002
sS'score'
p1803
I-1
sS'id'
p1804
V1000
p1805
sS'tank_id'
p1806
I2
saasV58394801
p1807
(lp1808
S'._._._._._._._._._._.\n| . . |_.   |_._.   |\n|_| | | ._. | ._._. |\n| ._|_._| | ._|_. | |\n| |_._._._._| ._._| |\n| . . . ._._._| ._._|\n| | | | | ._. | | . |\n| | | | ._| . |_._| |\n| | | | | | |_._| . |\n| ._| |_. |_._._._| |\n|_._._._._._._._._._|'
p1809
a(lp1810
(dp1811
S'name'
p1812
S'GUEST3'
p1813
sS'ipaddr'
p1814
V127.0.0.1
p1815
sS'session_id'
p1816
I79395159
sS'port'
p1817
I5001
sS'score'
p1818
I0
sS'id'
p1819
NsS'tank_id'
p1820
I2
sa(dp1821
S'name'
p1822
S'USER1'
p1823
sS'ipaddr'
p1824
V127.0.0.1
p1825
sS'session_id'
p1826
I39188800
sS'port'
p1827
I5002
sS'score'
p1828
I0
sS'id'
p1829
V1000
p1830
sS'tank_id'
p1831
I2
saassS'wait_for_start'
p1832
I01
sS'start_time'
p1833
F1412268829.360234
sS'waitlist'
p1834
g588
sS'battle_id'
p1835
I77250129
s.