(dp0
S'battlelist'
p1
(dp2
V59646999
p3
(lp4
S'._._._._._._._._._._.\n|   .   .   .   |   |\n| ._|_. |_._|_._._. |\n|   |   |   .   |   |\n|_._| ._._._|_._| ._|\n|   |   |   |   .   |\n| ._._._. ._. ._|_._|\n|   |   |   |   .   |\n|_._| ._|_. |_._| ._|\n|   .   |   |   |   |\n|_._|_._._._|_._._._|'
p5
a(lp6
(dp7
S'name'
p8
NsS'ipaddr'
p9
V127.0.0.1
p10
sS'session_id'
p11
I22159355
sS'port'
p12
I5001
sS'score'
p13
I-1
sS'id'
p14
NsS'tank_id'
p15
I2
sa(dp16
S'name'
p17
NsS'ipaddr'
p18
V127.0.0.1
p19
sS'session_id'
p20
I17409169
sS'port'
p21
I5002
sS'score'
p22
I-1
sS'id'
p23
NsS'tank_id'
p24
I2
saasV8725871
p25
(lp26
S'._._._._._._._._._._.\n| ._. ._. | ._. ._. |\n| | ._. | | |     | |\n|   |_. |_.         |\n| |_._.   | |_. ._| |\n|_._. |_._|_._. ._._|\n| ._._._._|         |\n| | . ._. |         |\n| | | | | .         |\n|_._|_. | |         |\n|_._._._._|_._._._._|'
p27
a(lp28
(dp29
S'name'
p30
S'USER'
p31
sS'ipaddr'
p32
V127.0.0.1
p33
sS'session_id'
p34
I43166576
sS'port'
p35
I5001
sS'score'
p36
I270
sS'id'
p37
V1000
p38
sS'tank_id'
p39
I2
sa(dp40
S'name'
p41
NsS'ipaddr'
p42
V127.0.0.1
p43
sS'session_id'
p44
I29326085
sS'port'
p45
I5002
sS'score'
p46
I120
sS'id'
p47
NsS'tank_id'
p48
I2
saasV7225380
p49
(lp50
S'._._._._._._._._._._.\n| . | ._._._._. | . |\n| | ._._._._._._. | |\n| | ._._. . ._._. | |\n|_| |   . | .   | |_|\n| ._| ._| | |_. |_. |\n|_._._._. | ._._._._|\n|_. . |  ._.  | ._. |\n| ._| |  ._.  | | | |\n| | . |_.   ._|     |\n|_._|_._._._._._|_|_|'
p51
a(lp52
(dp53
S'name'
p54
NsS'ipaddr'
p55
V127.0.0.1
p56
sS'session_id'
p57
I35189938
sS'port'
p58
I5001
sS'score'
p59
I-1
sS'id'
p60
NsS'tank_id'
p61
I2
sa(dp62
S'name'
p63
NsS'ipaddr'
p64
V127.0.0.1
p65
sS'session_id'
p66
I65603867
sS'port'
p67
I5002
sS'score'
p68
I-1
sS'id'
p69
NsS'tank_id'
p70
I2
saasV35735195
p71
(lp72
S'._._._._._._._._._._.\n| ._. ._. | ._. ._. |\n| | ._. | | |     | |\n|   |_. |_.         |\n| |_._.   | |_. ._| |\n|_._. |_._|_._. ._._|\n| ._._._._|         |\n| | . ._. |         |\n| | | | | .         |\n|_._|_. | |         |\n|_._._._._|_._._._._|'
p73
a(lp74
(dp75
S'name'
p76
NsS'ipaddr'
p77
V127.0.0.1
p78
sS'session_id'
p79
I78896334
sS'port'
p80
I5001
sS'score'
p81
I0
sS'id'
p82
NsS'tank_id'
p83
I2
sa(dp84
S'name'
p85
NsS'ipaddr'
p86
V127.0.0.1
p87
sS'session_id'
p88
I70415168
sS'port'
p89
I5002
sS'score'
p90
I270
sS'id'
p91
NsS'tank_id'
p92
I2
saasV32105232
p93
(lp94
S'._._._._._._._._._._.\n| . . ._. . ._._. . |\n| | | | . |   ._. | |\n| ._|_._| | ._|   | |\n| ._._._._.   ._._| |\n| . | . ._._._| ._._|\n| | | | | ._. | |   |\n| . . . . ._|   |_. |\n| | | | | | ._._| . |\n| ._| |_. |_._._._| |\n|_._._._._._._._._._|'
p95
a(lp96
(dp97
S'name'
p98
S'USER'
p99
sS'ipaddr'
p100
V127.0.0.1
p101
sS'session_id'
p102
I91185648
sS'port'
p103
I5001
sS'score'
p104
I300
sS'id'
p105
V1000
p106
sS'tank_id'
p107
I2
sa(dp108
S'name'
p109
S'USER'
p110
sS'ipaddr'
p111
V127.0.0.1
p112
sS'session_id'
p113
I7994928
sS'port'
p114
I5002
sS'score'
p115
I255
sS'id'
p116
V1001
p117
sS'tank_id'
p118
I2
saasV74416424
p119
(lp120
S'._._._._._._._._._._.\n|   ._._.   ._._.   |\n|     |     |_. |   |\n|     |     |   |   |\n|     |     |   |   |\n|                   |\n|   ._. .   . ._.   |\n|   | | |   |_|     |\n|   | | |   |_.     |\n|   | |_|   | |_.   |\n|_._._._._._._._._._|'
p121
a(lp122
(dp123
S'name'
p124
NsS'ipaddr'
p125
V127.0.0.1
p126
sS'session_id'
p127
I97698682
sS'port'
p128
I5002
sS'score'
p129
I225
sS'id'
p130
NsS'tank_id'
p131
I2
sa(dp132
S'name'
p133
S'USER'
p134
sS'ipaddr'
p135
V127.0.0.1
p136
sS'session_id'
p137
I11268628
sS'port'
p138
I5001
sS'score'
p139
I0
sS'id'
p140
V1000
p141
sS'tank_id'
p142
I2
saasV9665660
p143
(lp144
S'._._._._._._._._._._.\n| . . ._.   |     . |\n|_| |       | ._._| |\n| ._| ._.   ._|   | |\n| ._._._._._| . ._| |\n| . | ._._._._| . | |\n| | | |   .     | . |\n| | | |   |   ._. | |\n| | | |   |   ._|   |\n| ._| |_. |_._._._. |\n|_._._._._._._._._._|'
p145
a(lp146
(dp147
S'name'
p148
NsS'ipaddr'
p149
V127.0.0.1
p150
sS'session_id'
p151
I38963136
sS'port'
p152
I5001
sS'score'
p153
I0
sS'id'
p154
NsS'tank_id'
p155
I2
sa(dp156
S'name'
p157
NsS'ipaddr'
p158
V127.0.0.1
p159
sS'session_id'
p160
I51933658
sS'port'
p161
I5002
sS'score'
p162
I-1
sS'id'
p163
NsS'tank_id'
p164
I2
saasV99121667
p165
(lp166
S'._._._._._._._._._._.\n|_. ._. ._. ._. ._. |\n| ._._._. ._._._. ._|\n|_. ._._._. ._._._. |\n| ._. ._. ._. ._. ._|\n|_.   ._._._._.   ._|\n|_. ._._.   ._._. ._|\n| ._._._.   ._._._. |\n|_.   ._._._._.   ._|\n|   ._._.   ._._.   |\n|_._._._._._._._._._|'
p167
a(lp168
(dp169
S'name'
p170
NsS'ipaddr'
p171
V127.0.0.1
p172
sS'session_id'
p173
I27526036
sS'port'
p174
I5001
sS'score'
p175
I-1
sS'id'
p176
NsS'tank_id'
p177
I2
sa(dp178
S'name'
p179
NsS'ipaddr'
p180
V127.0.0.1
p181
sS'session_id'
p182
I71427959
sS'port'
p183
I5002
sS'score'
p184
I-1
sS'id'
p185
NsS'tank_id'
p186
I2
saasV89596256
p187
(lp188
S'._._._._._._._._._._.\n|   |_. ._._. ._|   |\n|_.   |_.   ._|   ._|\n| |_.   |   |   ._| |\n| . |   ._._.   | . |\n| |               | |\n| | .   ._._.   . | |\n| ._|   .   .   |_. |\n|_|   ._|   |_.   |_|\n|   ._| ._._. |_.   |\n|_._|_._._._._._|_._|'
p189
a(lp190
(dp191
S'name'
p192
NsS'ipaddr'
p193
V127.0.0.1
p194
sS'session_id'
p195
I12193401
sS'port'
p196
I5001
sS'score'
p197
I-1
sS'id'
p198
NsS'tank_id'
p199
I2
sa(dp200
S'name'
p201
NsS'ipaddr'
p202
V127.0.0.1
p203
sS'session_id'
p204
I30942434
sS'port'
p205
I5002
sS'score'
p206
I-1
sS'id'
p207
NsS'tank_id'
p208
I2
saasV8352213
p209
(lp210
S'._._._._._._._._._._.\n| . . ._. . ._._. . |\n| | | | . |   ._. | |\n| ._|_._| | ._|   | |\n| ._._._._.   ._._| |\n| . | . ._._._| ._._|\n| | | | | ._. | |   |\n| . . . . ._|   |_. |\n| | | | | | ._._| . |\n| ._| |_. |_._._._| |\n|_._._._._._._._._._|'
p211
a(lp212
(dp213
S'name'
p214
NsS'ipaddr'
p215
V127.0.0.1
p216
sS'session_id'
p217
I40371810
sS'port'
p218
I5001
sS'score'
p219
I-1
sS'id'
p220
NsS'tank_id'
p221
I2
sa(dp222
S'name'
p223
NsS'ipaddr'
p224
V127.0.0.1
p225
sS'session_id'
p226
I17120194
sS'port'
p227
I5002
sS'score'
p228
I-1
sS'id'
p229
NsS'tank_id'
p230
I2
saasV0
p231
(lp232
S'._._._._._._._._._._.\n| ._._._.   ._._._. |\n| | ._.       ._. | |\n| | |_.       ._| | |\n| |_._._.   ._._._| |\n|                   |\n| ._._._.   ._._._. |\n| |     |   |     | |\n| |   ._|   |_.   | |\n| |_._._.   ._._._| |\n|_._._._._._._._._._|'
p233
a(lp234
(dp235
S'name'
p236
NsS'ipaddr'
p237
V127.0.0.1
p238
sS'session_id'
p239
I10551696
sS'port'
p240
I5001
sS'score'
p241
I0
sS'id'
p242
NsS'tank_id'
p243
I2
sa(dp244
S'name'
p245
NsS'ipaddr'
p246
V127.0.0.1
p247
sS'session_id'
p248
I90651377
sS'port'
p249
I5002
sS'score'
p250
I0
sS'id'
p251
NsS'tank_id'
p252
I2
saasV77970181
p253
(lp254
S'._._._._._._._._._._.\n| . | ._._._._. | . |\n| | ._._._._._._. | |\n| | ._._. . ._._. | |\n|_| |   . | .   | |_|\n| ._| ._| | |_. |_. |\n|_._._._. | ._._._._|\n|_. . |  ._.  | ._. |\n| ._| |  ._.  | | | |\n| | . |_.   ._|     |\n|_._|_._._._._._|_|_|'
p255
a(lp256
(dp257
S'name'
p258
NsS'ipaddr'
p259
V127.0.0.1
p260
sS'session_id'
p261
I99862257
sS'port'
p262
I5001
sS'score'
p263
I-1
sS'id'
p264
NsS'tank_id'
p265
I2
sa(dp266
S'name'
p267
NsS'ipaddr'
p268
V127.0.0.1
p269
sS'session_id'
p270
I65981634
sS'port'
p271
I5002
sS'score'
p272
I-1
sS'id'
p273
NsS'tank_id'
p274
I2
saasV65850247
p275
(lp276
S'._._._._._._._._._._.\n| . . ._.   |     . |\n|_| |       | ._._| |\n| ._| ._.   ._|   | |\n| ._._._._._| . ._| |\n| . | ._._._._| . | |\n| | | |   .     | . |\n| | | |   |   ._. | |\n| | | |   |   ._|   |\n| ._| |_. |_._._._. |\n|_._._._._._._._._._|'
p277
a(lp278
(dp279
S'name'
p280
NsS'ipaddr'
p281
V127.0.0.1
p282
sS'session_id'
p283
I36535807
sS'port'
p284
I5002
sS'score'
p285
I0
sS'id'
p286
NsS'tank_id'
p287
I2
sa(dp288
S'name'
p289
NsS'ipaddr'
p290
V127.0.0.1
p291
sS'session_id'
p292
I86341889
sS'port'
p293
I5001
sS'score'
p294
I0
sS'id'
p295
NsS'tank_id'
p296
I2
saasV25017549
p297
(lp298
S'._._._._._._._._._._.\n|                   |\n|   ._._._._._._.   |\n|   |           |   |\n|   |   . ._.       |\n|   |   |   |   .   |\n|       |_. |   |   |\n|   .           |   |\n|   |_._._._._._|   |\n|                   |\n|_._._._._._._._._._|'
p299
a(lp300
(dp301
S'name'
p302
NsS'ipaddr'
p303
V127.0.0.1
p304
sS'session_id'
p305
I70815129
sS'port'
p306
I5002
sS'score'
p307
I-1
sS'id'
p308
NsS'tank_id'
p309
I2
sa(dp310
S'name'
p311
S'USER'
p312
sS'ipaddr'
p313
V127.0.0.1
p314
sS'session_id'
p315
I14220821
sS'port'
p316
I5001
sS'score'
p317
I0
sS'id'
p318
V1000
p319
sS'tank_id'
p320
I2
saasV71120044
p321
(lp322
S'._._._._._._._._._._.\n| . . ._.   |     . |\n|_| |       | ._._| |\n| ._| ._.   ._|   | |\n| ._._._._._| . ._| |\n| . | ._._._._| . | |\n| | | |   .     | . |\n| | | |   |   ._. | |\n| | | |   |   ._|   |\n| ._| |_. |_._._._. |\n|_._._._._._._._._._|'
p323
a(lp324
(dp325
S'name'
p326
NsS'ipaddr'
p327
V127.0.0.1
p328
sS'session_id'
p329
I82963956
sS'port'
p330
I5001
sS'score'
p331
I0
sS'id'
p332
NsS'tank_id'
p333
I2
sa(dp334
S'name'
p335
NsS'ipaddr'
p336
V127.0.0.1
p337
sS'session_id'
p338
I51277323
sS'port'
p339
I5002
sS'score'
p340
I0
sS'id'
p341
NsS'tank_id'
p342
I2
saasV87200848
p343
(lp344
S'._._._._._._._._._._.\n| . . |_.   |_._.   |\n|_| | | ._. | ._._. |\n| ._|_._| | ._|_. | |\n| |_._._._._| ._._| |\n| . . . ._._._| ._._|\n| | | | | ._. | | . |\n| | | | ._| . |_._| |\n| | | | | | |_._| . |\n| ._| |_. |_._._._| |\n|_._._._._._._._._._|'
p345
a(lp346
(dp347
S'name'
p348
NsS'ipaddr'
p349
V127.0.0.1
p350
sS'session_id'
p351
I78866948
sS'port'
p352
I5001
sS'score'
p353
I-1
sS'id'
p354
NsS'tank_id'
p355
I2
sa(dp356
S'name'
p357
NsS'ipaddr'
p358
V127.0.0.1
p359
sS'session_id'
p360
I41014196
sS'port'
p361
I5001
sS'score'
p362
I0
sS'id'
p363
NsS'tank_id'
p364
I2
saasV2789754
p365
(lp366
S'._._._._._._._._._._.\n| . . ._.   |     . |\n|_| |       | ._._| |\n| ._| ._.   ._|   | |\n| ._._._._._| . ._| |\n| . | ._._._._| . | |\n| | | |   .     | . |\n| | | |   |   ._. | |\n| | | |   |   ._|   |\n| ._| |_. |_._._._. |\n|_._._._._._._._._._|'
p367
a(lp368
(dp369
S'name'
p370
S'USER'
p371
sS'ipaddr'
p372
V127.0.0.1
p373
sS'session_id'
p374
I450323
sS'port'
p375
I5001
sS'score'
p376
I-1
sS'id'
p377
V1001
p378
sS'tank_id'
p379
I5
sa(dp380
S'name'
p381
S'USER'
p382
sS'ipaddr'
p383
V127.0.0.1
p384
sS'session_id'
p385
I19253029
sS'port'
p386
I5002
sS'score'
p387
I-1
sS'id'
p388
V1000
p389
sS'tank_id'
p390
I0
saasV21580100
p391
(lp392
S'._._._._._._._._._._.\n|   |_. ._._. ._|   |\n|_.   |_.   ._|   ._|\n| |_.   |   |   ._| |\n| . |   ._._.   | . |\n| |               | |\n| | .   ._._.   . | |\n| ._|   .   .   |_. |\n|_|   ._|   |_.   |_|\n|   ._| ._._. |_.   |\n|_._|_._._._._._|_._|'
p393
a(lp394
(dp395
S'name'
p396
NsS'ipaddr'
p397
V127.0.0.1
p398
sS'session_id'
p399
I31411490
sS'port'
p400
I5001
sS'score'
p401
I-1
sS'id'
p402
NsS'tank_id'
p403
I2
sa(dp404
S'name'
p405
NsS'ipaddr'
p406
V127.0.0.1
p407
sS'session_id'
p408
I41874829
sS'port'
p409
I5002
sS'score'
p410
I-1
sS'id'
p411
NsS'tank_id'
p412
I2
saasV69071652
p413
(lp414
S'._._._._._._._._._._.\n|   .   .   .   |   |\n| ._|_. |_._|_._._. |\n|   |   |   .   |   |\n|_._| ._._._|_._| ._|\n|   |   |   |   .   |\n| ._._._. ._. ._|_._|\n|   |   |   |   .   |\n|_._| ._|_. |_._| ._|\n|   .   |   |   |   |\n|_._|_._._._|_._._._|'
p415
a(lp416
(dp417
S'name'
p418
S'USER'
p419
sS'ipaddr'
p420
V127.0.0.1
p421
sS'session_id'
p422
I53965763
sS'port'
p423
I5001
sS'score'
p424
I0
sS'id'
p425
V1001
p426
sS'tank_id'
p427
I2
sa(dp428
S'name'
p429
S'USER'
p430
sS'ipaddr'
p431
V127.0.0.1
p432
sS'session_id'
p433
I87856346
sS'port'
p434
I5002
sS'score'
p435
I0
sS'id'
p436
V1000
p437
sS'tank_id'
p438
I2
saassS'wait_for_start'
p439
I01
sS'start_time'
p440
F1412188898.938665
sS'battle_id'
p441
I89596256
sS'waitlist'
p442
g190
s.