(dp0
S'wait_for_start'
p1
I00
sS'waitlist'
p2
(lp3
(dp4
S'name'
p5
S'GUEST2'
p6
sS'ipaddr'
p7
V127.0.0.1
p8
sS'session_id'
p9
I28402325
sS'port'
p10
I5001
sS'score'
p11
I-1
sS'id'
p12
NsS'tank_id'
p13
I1
sasS'battlelist'
p14
(dp15
V3982029
p16
(lp17
S'._._._._._._._._._._.\n|       |   . ._._. |\n|_.   ._|_._| | . | |\n| . . . |   . | | | |\n| | | | ._._|_._|_. |\n| |_._| .   | .   . |\n|_.   ._|_._. |_._| |\n| . . . . . | |   | |\n| | |_|_| | |_. . ._|\n| |_. | ._| | ._|_. |\n|_._._._._._._._._._|'
p18
a(lp19
(dp20
S'alivetime'
p21
F184.0
sS'name'
p22
S'GUEST2'
p23
sS'ipaddr'
p24
V127.0.0.1
p25
sS'session_id'
p26
I39361023
sS'id'
p27
NsS'score'
p28
I160
sS'port'
p29
I5001
sS'tank_id'
p30
I0
sa(dp31
S'alivetime'
p32
F184.0
sS'name'
p33
S'GUEST1'
p34
sS'ipaddr'
p35
V127.0.0.1
p36
sS'session_id'
p37
I74560898
sS'port'
p38
I5002
sS'score'
p39
I0
sS'id'
p40
NsS'tank_id'
p41
I2
saaI01
asV90793218
p42
(lp43
S'._._._._._._._._._._.\n|   |_. ._._. ._|   |\n|_.   |_.   ._|   ._|\n| |_.   |   |   ._| |\n| . |   ._._.   | . |\n| |               | |\n| | .   ._._.   . | |\n| ._|   .   .   |_. |\n|_|   ._|   |_.   |_|\n|   ._| ._._. |_.   |\n|_._|_._._._._._|_._|'
p44
a(lp45
(dp46
S'alivetime'
p47
F184.0
sS'name'
p48
S'GUEST2'
p49
sS'ipaddr'
p50
V127.0.0.1
p51
sS'session_id'
p52
I55334121
sS'id'
p53
NsS'score'
p54
I0
sS'port'
p55
I5001
sS'tank_id'
p56
I1
sa(dp57
S'alivetime'
p58
F184.0
sS'name'
p59
S'GUEST1'
p60
sS'ipaddr'
p61
V127.0.0.1
p62
sS'session_id'
p63
I59497993
sS'port'
p64
I5002
sS'score'
p65
I320
sS'id'
p66
NsS'tank_id'
p67
I0
saaI01
asV57029849
p68
(lp69
S'._._._._._._._._._._.\n|   ._._.   ._._.   |\n|     |     |_. |   |\n|     |     |   |   |\n|     |     |   |   |\n|                   |\n|   ._. .   . ._.   |\n|   | | |   |_|     |\n|   | | |   |_.     |\n|   | |_|   | |_.   |\n|_._._._._._._._._._|'
p70
a(lp71
(dp72
S'name'
p73
S'GUEST2'
p74
sS'ipaddr'
p75
V127.0.0.1
p76
sS'session_id'
p77
I91158602
sS'port'
p78
I5002
sS'score'
p79
I-1
sS'id'
p80
NsS'tank_id'
p81
I1
sa(dp82
S'name'
p83
S'GUEST1'
p84
sS'ipaddr'
p85
V127.0.0.1
p86
sS'session_id'
p87
I75868268
sS'port'
p88
I5001
sS'score'
p89
I-1
sS'id'
p90
NsS'tank_id'
p91
I3
saaI00
asV57009389
p92
(lp93
S'._._._._._._._._._._.\n| . . |_.   |_._.   |\n|_| | | ._. | ._._. |\n| ._|_._| | ._|_. | |\n| |_._._._._| ._._| |\n| . . . ._._._| ._._|\n| | | | | ._. | | . |\n| | | | ._| . |_._| |\n| | | | | | |_._| . |\n| ._| |_. |_._._._| |\n|_._._._._._._._._._|'
p94
a(lp95
(dp96
S'alivetime'
p97
F184.0
sS'name'
p98
S'GUEST2'
p99
sS'ipaddr'
p100
V127.0.0.1
p101
sS'session_id'
p102
I94904684
sS'id'
p103
NsS'score'
p104
I0
sS'port'
p105
I5001
sS'tank_id'
p106
I1
sa(dp107
S'alivetime'
p108
F184.0
sS'name'
p109
S'GUEST1'
p110
sS'ipaddr'
p111
V127.0.0.1
p112
sS'session_id'
p113
I65164868
sS'port'
p114
I5002
sS'score'
p115
I0
sS'id'
p116
NsS'tank_id'
p117
I0
saaI01
asV96010850
p118
(lp119
S'._._._._._._._._._._.\n| .               . |\n| |   ._.   ._.   | |\n| |   |       |   | |\n| |               | |\n|_._._._. . ._._._._|\n| ._. | ._| | ._._. |\n|_. |_._. | | | . | |\n| ._| ._._|_._._| | |\n| | . | . | ._._._| |\n|_._|_._|_._._._._._|'
p120
a(lp121
(dp122
S'name'
p123
S'GUEST2'
p124
sS'ipaddr'
p125
V127.0.0.1
p126
sS'session_id'
p127
I39436296
sS'port'
p128
I5002
sS'score'
p129
I-1
sS'id'
p130
NsS'tank_id'
p131
I1
sa(dp132
S'alivetime'
p133
F4.0
sS'name'
p134
S'GUEST1'
p135
sS'ipaddr'
p136
V127.0.0.1
p137
sS'session_id'
p138
I2144373
sS'port'
p139
I5001
sS'score'
p140
I0
sS'id'
p141
NsS'tank_id'
p142
I1
saaI01
asV15244913
p143
(lp144
S'._._._._._._._._._._.\n| . . ._. . ._._. . |\n| | | | . |   ._. | |\n| ._|_._| | ._|   | |\n| ._._._._.   ._._| |\n| . | . ._._._| ._._|\n| | | | | ._. | |   |\n| . . . . ._|   |_. |\n| | | | | | ._._| . |\n| ._| |_. |_._._._| |\n|_._._._._._._._._._|'
p145
a(lp146
(dp147
S'alivetime'
p148
F82.0
sS'name'
p149
S'GUEST2'
p150
sS'ipaddr'
p151
V127.0.0.1
p152
sS'session_id'
p153
I99471627
sS'port'
p154
I5001
sS'score'
p155
I0
sS'id'
p156
NsS'tank_id'
p157
I1
sa(dp158
S'alivetime'
p159
F82.0
sS'name'
p160
S'GUEST1'
p161
sS'ipaddr'
p162
V127.0.0.1
p163
sS'session_id'
p164
I28158822
sS'id'
p165
NsS'score'
p166
I570
sS'port'
p167
I5002
sS'tank_id'
p168
I4
saaI01
asV85122526
p169
(lp170
S'._._._._._._._._._._.\n|   .   .   .   |   |\n| ._|_. |_._|_._._. |\n|   |   |   .   |   |\n|_._| ._._._|_._| ._|\n|   |   |   |   .   |\n| ._._._. ._. ._|_._|\n|   |   |   |   .   |\n|_._| ._|_. |_._| ._|\n|   .   |   |   |   |\n|_._|_._._._|_._._._|'
p171
a(lp172
(dp173
S'name'
p174
S'GUEST2'
p175
sS'ipaddr'
p176
V127.0.0.1
p177
sS'session_id'
p178
I66552138
sS'port'
p179
I5001
sS'score'
p180
I-1
sS'id'
p181
NsS'tank_id'
p182
I1
sa(dp183
S'alivetime'
p184
F4.0
sS'name'
p185
S'GUEST1'
p186
sS'ipaddr'
p187
V127.0.0.1
p188
sS'session_id'
p189
I54336948
sS'port'
p190
I5001
sS'score'
p191
I0
sS'id'
p192
NsS'tank_id'
p193
I1
saaI01
asV38148542
p194
(lp195
S'._._._._._._._._._._.\n| .       |       . |\n| |_._.   |   ._._| |\n| | ._.   |   ._. | |\n| | | ._.   ._. | | |\n| |   |       |   | |\n| | ._. ._._. ._. | |\n| | |   | . |   | | |\n| |_._.   |   ._._| |\n| |       |       | |\n|_._._._._|_._._._._|'
p196
a(lp197
(dp198
S'name'
p199
S'GUEST0'
p200
sS'ipaddr'
p201
V127.0.0.1
p202
sS'session_id'
p203
I3106264
sS'port'
p204
I5001
sS'score'
p205
I-1
sS'id'
p206
NsS'tank_id'
p207
I1
sa(dp208
S'alivetime'
p209
F4.0
sS'name'
p210
S'GUEST1'
p211
sS'ipaddr'
p212
V127.0.0.1
p213
sS'session_id'
p214
I67944878
sS'port'
p215
I5001
sS'score'
p216
I0
sS'id'
p217
NsS'tank_id'
p218
I1
saaI01
asV30253636
p219
(lp220
S'._._._._._._._._._._.\n| . . |_.   |_._.   |\n|_| | | ._. | ._._. |\n| ._|_._| | ._|_. | |\n| |_._._._._| ._._| |\n| . . . ._._._| ._._|\n| | | | | ._. | | . |\n| | | | ._| . |_._| |\n| | | | | | |_._| . |\n| ._| |_. |_._._._| |\n|_._._._._._._._._._|'
p221
a(lp222
(dp223
S'name'
p224
S'GUEST2'
p225
sS'ipaddr'
p226
V127.0.0.1
p227
sS'session_id'
p228
I15515690
sS'port'
p229
I5001
sS'score'
p230
I-1
sS'id'
p231
NsS'tank_id'
p232
I1
sa(dp233
S'name'
p234
S'GUEST1'
p235
sS'ipaddr'
p236
V127.0.0.1
p237
sS'session_id'
p238
I59309240
sS'port'
p239
I5002
sS'score'
p240
I-1
sS'id'
p241
NsS'tank_id'
p242
I0
saaI00
asV5416346
p243
(lp244
S'._._._._._._._._._._.\n| ._._._.   ._._._. |\n| | ._._.   ._._. | |\n| | | ._.   ._. | | |\n| | | |       | | | |\n|                   |\n| . . .       . . . |\n| | | |_.   ._| | | |\n| | |_._.   ._._| | |\n| |_._._.   ._._._| |\n|_._._._._._._._._._|'
p245
a(lp246
(dp247
S'name'
p248
S'GUEST2'
p249
sS'ipaddr'
p250
V127.0.0.1
p251
sS'session_id'
p252
I78483240
sS'port'
p253
I5001
sS'score'
p254
I-1
sS'id'
p255
NsS'tank_id'
p256
I1
sa(dp257
S'alivetime'
p258
F4.0
sS'name'
p259
S'GUEST1'
p260
sS'ipaddr'
p261
V127.0.0.1
p262
sS'session_id'
p263
I55028244
sS'port'
p264
I5001
sS'score'
p265
I0
sS'id'
p266
NsS'tank_id'
p267
I0
saaI01
asV30892894
p268
(lp269
S'._._._._._._._._._._.\n| ._._._._.     ._. |\n| |   | |     . | | |\n| |_. ._.   ._|_|   |\n| |_. |     | |   . |\n| |     .   |   ._| |\n|     . |     ._| . |\n|   ._|_|   ._| . | |\n| . | |   ._| ._| | |\n| |_|   ._| ._._._| |\n|_._._._._._._._._._|'
p270
a(lp271
(dp272
S'alivetime'
p273
F70.0
sS'name'
p274
S'GUEST2'
p275
sS'ipaddr'
p276
V127.0.0.1
p277
sS'session_id'
p278
I53270525
sS'id'
p279
NsS'score'
p280
I0
sS'port'
p281
I5001
sS'tank_id'
p282
I1
sa(dp283
S'alivetime'
p284
F70.0
sS'name'
p285
S'GUEST1'
p286
sS'ipaddr'
p287
V127.0.0.1
p288
sS'session_id'
p289
I79374256
sS'port'
p290
I5002
sS'score'
p291
I660
sS'id'
p292
NsS'tank_id'
p293
I0
saaI01
asV98513671
p294
(lp295
S'._._._._._._._._._._.\n|                   |\n|   ._._._._._._.   |\n|   |           |   |\n|   |   . ._.       |\n|   |   |   |   .   |\n|       |_. |   |   |\n|   .           |   |\n|   |_._._._._._|   |\n|                   |\n|_._._._._._._._._._|'
p296
a(lp297
(dp298
S'alivetime'
p299
F136.0
sS'name'
p300
S'GUEST2'
p301
sS'ipaddr'
p302
V127.0.0.1
p303
sS'session_id'
p304
I72916073
sS'port'
p305
I5001
sS'score'
p306
I640
sS'id'
p307
NsS'tank_id'
p308
I1
sa(dp309
S'alivetime'
p310
F136.0
sS'name'
p311
S'GUEST1'
p312
sS'ipaddr'
p313
V127.0.0.1
p314
sS'session_id'
p315
I50937557
sS'id'
p316
NsS'score'
p317
I0
sS'port'
p318
I5002
sS'tank_id'
p319
I2
saaI01
asV60602539
p320
(lp321
S'._._._._._._._._._._.\n| .               . |\n| |   ._.   ._.   | |\n| |   |       |   | |\n| |               | |\n|_._._._. . ._._._._|\n| ._. | ._| | ._._. |\n|_. |_._. | | | . | |\n| ._| ._._|_._._| | |\n| | . | . | ._._._| |\n|_._|_._|_._._._._._|'
p322
a(lp323
(dp324
S'alivetime'
p325
F53.0
sS'name'
p326
S'GUEST2'
p327
sS'ipaddr'
p328
V127.0.0.1
p329
sS'session_id'
p330
I46752971
sS'port'
p331
I5001
sS'score'
p332
I135
sS'id'
p333
NsS'tank_id'
p334
I2
sa(dp335
S'alivetime'
p336
F53.0
sS'name'
p337
S'GUEST1'
p338
sS'ipaddr'
p339
V127.0.0.1
p340
sS'session_id'
p341
I73541044
sS'id'
p342
NsS'score'
p343
I390
sS'port'
p344
I5002
sS'tank_id'
p345
I3
saaI01
assS'start_time'
p346
I2147483647
sS'battles'
p347
I14
sS'connection'
p348
I27
sS'battle_id'
p349
I42834590
s.