(dp0
S'wait_list'
p1
(lp2
sS'user_list'
p3
(lp4
(dp5
S'score'
p6
I100
sS'user_id'
p7
S'test'
p8
sS'screen_name'
p9
S'testuser'
p10
sS'kill_count'
p11
I10
sS'pass'
p12
S'password'
p13
sa(dp14
g6
I200
sg7
S'test2'
p15
sg9
S'testuser2'
p16
sg11
I20
sg12
S'password2'
p17
sa(dp18
S'score'
p19
I0
sS'user_id'
p20
S'86920'
p21
sS'screen_name'
p22
g21
sS'kill_count'
p23
I0
sS'pass'
p24
S'87424'
p25
sa(dp26
g19
I0
sg20
S'32058'
p27
sg22
g27
sg23
I0
sg24
S'51454'
p28
sa(dp29
g19
I0
sg20
S'21269'
p30
sg22
g30
sg23
I0
sg24
S'91811'
p31
sa(dp32
g19
I0
sg20
S'59304'
p33
sg22
g33
sg23
I0
sg24
S'97060'
p34
sa(dp35
g19
I0
sg20
S'84791'
p36
sg22
g36
sg23
I0
sg24
S'50079'
p37
sa(dp38
g19
I0
sg20
S'95241'
p39
sg22
g39
sg23
I0
sg24
S'29357'
p40
sa(dp41
g19
I0
sg20
S'92029'
p42
sg22
g42
sg23
I0
sg24
S'41790'
p43
sa(dp44
g19
I0
sg20
S'12408'
p45
sg22
g45
sg23
I0
sg24
S'62453'
p46
sa(dp47
g19
I0
sg20
S'19623'
p48
sg22
g48
sg23
I0
sg24
S'77681'
p49
sa(dp50
g19
I0
sg20
S'41170'
p51
sg22
g51
sg23
I0
sg24
S'84981'
p52
sa(dp53
g19
I0
sg20
S'44360'
p54
sg22
g54
sg23
I0
sg24
S'22219'
p55
sa(dp56
g19
I0
sg20
S'20449'
p57
sg22
g57
sg23
I0
sg24
S'78612'
p58
sa(dp59
g19
I0
sg20
S'91276'
p60
sg22
g60
sg23
I0
sg24
S'12337'
p61
sa(dp62
g19
I0
sg20
S'91869'
p63
sg22
g63
sg23
I0
sg24
S'85678'
p64
sa(dp65
g19
I0
sg20
S'87230'
p66
sg22
g66
sg23
I0
sg24
S'71273'
p67
sa(dp68
g19
I0
sg20
S'29552'
p69
sg22
g69
sg23
I0
sg24
S'76440'
p70
sa(dp71
g19
I0
sg20
S'69402'
p72
sg22
g72
sg23
I0
sg24
S'38638'
p73
sa(dp74
g19
I0
sg20
S'57217'
p75
sg22
g75
sg23
I0
sg24
S'10115'
p76
sa(dp77
g19
I0
sg20
S'36338'
p78
sg22
g78
sg23
I0
sg24
S'47511'
p79
sa(dp80
g19
I0
sg20
S'34248'
p81
sg22
g81
sg23
I0
sg24
S'74487'
p82
sa(dp83
g19
I0
sg20
S'40514'
p84
sg22
g84
sg23
I0
sg24
S'93428'
p85
sa(dp86
g19
I0
sg20
S'57617'
p87
sg22
g87
sg23
I0
sg24
S'59971'
p88
sa(dp89
g19
I0
sg20
S'59273'
p90
sg22
g90
sg23
I0
sg24
S'93299'
p91
sa(dp92
g19
I0
sg20
S'80479'
p93
sg22
g93
sg23
I0
sg24
S'12021'
p94
sa(dp95
g19
I0
sg20
S'98682'
p96
sg22
g96
sg23
I0
sg24
S'30370'
p97
sa(dp98
g19
I0
sg20
S'90544'
p99
sg22
g99
sg23
I0
sg24
S'29348'
p100
sa(dp101
g19
I0
sg20
S'48586'
p102
sg22
g102
sg23
I0
sg24
S'71450'
p103
sa(dp104
g19
I0
sg20
S'27219'
p105
sg22
g105
sg23
I0
sg24
S'61954'
p106
sa(dp107
g19
I0
sg20
S'31636'
p108
sg22
g108
sg23
I0
sg24
S'83667'
p109
sa(dp110
g19
I0
sg20
S'88192'
p111
sg22
g111
sg23
I0
sg24
S'64803'
p112
sa(dp113
g19
I0
sg20
S'51857'
p114
sg22
g114
sg23
I0
sg24
S'38394'
p115
sa(dp116
g19
I0
sg20
S'77380'
p117
sg22
g117
sg23
I0
sg24
S'76758'
p118
sa(dp119
g19
I0
sg20
S'88625'
p120
sg22
g120
sg23
I0
sg24
S'20920'
p121
sa(dp122
g19
I0
sg20
S'91451'
p123
sg22
g123
sg23
I0
sg24
S'47693'
p124
sa(dp125
g19
I0
sg20
S'46195'
p126
sg22
g126
sg23
I0
sg24
S'54628'
p127
sa(dp128
g19
I0
sg20
S'92606'
p129
sg22
g129
sg23
I0
sg24
S'31986'
p130
sa(dp131
g19
I0
sg20
S'30809'
p132
sg22
g132
sg23
I0
sg24
S'34784'
p133
sa(dp134
g19
I0
sg20
S'78856'
p135
sg22
g135
sg23
I0
sg24
S'79935'
p136
sa(dp137
g19
I0
sg20
S'73854'
p138
sg22
g138
sg23
I0
sg24
S'34459'
p139
sa(dp140
g19
I0
sg20
S'20887'
p141
sg22
g141
sg23
I0
sg24
S'77778'
p142
sa(dp143
g19
I0
sg20
S'30169'
p144
sg22
g144
sg23
I0
sg24
S'63332'
p145
sa(dp146
g19
I0
sg20
S'14761'
p147
sg22
g147
sg23
I0
sg24
S'36564'
p148
sa(dp149
g19
I0
sg20
S'22133'
p150
sg22
g150
sg23
I0
sg24
S'18561'
p151
sa(dp152
g19
I0
sg20
S'29459'
p153
sg22
g153
sg23
I0
sg24
S'14550'
p154
sa(dp155
g19
I0
sg20
S'79269'
p156
sg22
g156
sg23
I0
sg24
S'24557'
p157
sa(dp158
g19
I0
sg20
S'63242'
p159
sg22
g159
sg23
I0
sg24
S'36332'
p160
sa(dp161
g19
I0
sg20
S'36008'
p162
sg22
g162
sg23
I0
sg24
S'63487'
p163
sa(dp164
g19
I0
sg20
S'36332'
p165
sg22
g165
sg23
I0
sg24
S'63269'
p166
sa(dp167
g19
I0
sg20
S'29994'
p168
sg22
g168
sg23
I0
sg24
S'88035'
p169
sa(dp170
g19
I0
sg20
S'63235'
p171
sg22
g171
sg23
I0
sg24
S'37215'
p172
sa(dp173
g19
I0
sg20
S'66731'
p174
sg22
g174
sg23
I0
sg24
S'57708'
p175
sa(dp176
g19
I0
sg20
S'63916'
p177
sg22
g177
sg23
I0
sg24
S'50354'
p178
sa(dp179
g19
I0
sg20
S'51069'
p180
sg22
g180
sg23
I0
sg24
S'56968'
p181
sa(dp182
g19
I0
sg20
S'95874'
p183
sg22
g183
sg23
I0
sg24
S'30268'
p184
sa(dp185
g19
I0
sg20
S'68797'
p186
sg22
g186
sg23
I0
sg24
S'15009'
p187
sa(dp188
g19
I0
sg20
S'70029'
p189
sg22
g189
sg23
I0
sg24
S'61944'
p190
sa(dp191
g19
I0
sg20
S'86922'
p192
sg22
g192
sg23
I0
sg24
S'32198'
p193
sa(dp194
g19
I0
sg20
S'31862'
p195
sg22
g195
sg23
I0
sg24
S'26487'
p196
sa(dp197
g19
I0
sg20
S'78896'
p198
sg22
g198
sg23
I0
sg24
S'23369'
p199
sa(dp200
g19
I0
sg20
S'98416'
p201
sg22
g201
sg23
I0
sg24
S'75474'
p202
sa(dp203
g19
I0
sg20
S'79925'
p204
sg22
g204
sg23
I0
sg24
S'63832'
p205
sa(dp206
g19
I0
sg20
S'24719'
p207
sg22
g207
sg23
I0
sg24
S'74571'
p208
sa(dp209
g19
I0
sg20
S'50168'
p210
sg22
g210
sg23
I0
sg24
S'29146'
p211
sa(dp212
g19
I0
sg20
S'29912'
p213
sg22
g213
sg23
I0
sg24
S'52443'
p214
sa(dp215
g19
I0
sg20
S'36697'
p216
sg22
g216
sg23
I0
sg24
S'57814'
p217
sa(dp218
g19
I0
sg20
S'78925'
p219
sg22
g219
sg23
I0
sg24
S'85195'
p220
sa(dp221
g19
I0
sg20
S'11501'
p222
sg22
g222
sg23
I0
sg24
S'80392'
p223
sa(dp224
g19
I0
sg20
S'13252'
p225
sg22
g225
sg23
I0
sg24
S'68366'
p226
sa(dp227
g19
I0
sg20
S'94078'
p228
sg22
g228
sg23
I0
sg24
S'32080'
p229
sa(dp230
g19
I0
sg20
S'85456'
p231
sg22
g231
sg23
I0
sg24
S'82945'
p232
sa(dp233
g19
I0
sg20
S'64686'
p234
sg22
g234
sg23
I0
sg24
S'99205'
p235
sa(dp236
g19
I0
sg20
S'58038'
p237
sg22
g237
sg23
I0
sg24
S'15584'
p238
sa(dp239
g19
I0
sg20
S'52587'
p240
sg22
g240
sg23
I0
sg24
S'59174'
p241
sa(dp242
g19
I0
sg20
S'85339'
p243
sg22
g243
sg23
I0
sg24
S'71644'
p244
sa(dp245
g19
I0
sg20
S'28527'
p246
sg22
g246
sg23
I0
sg24
S'19705'
p247
sa(dp248
g19
I0
sg20
S'37140'
p249
sg22
g249
sg23
I0
sg24
S'16487'
p250
sa(dp251
g19
I0
sg20
S'47506'
p252
sg22
g252
sg23
I0
sg24
S'34738'
p253
sa(dp254
g19
I0
sg20
S'83702'
p255
sg22
g255
sg23
I0
sg24
S'17549'
p256
sa(dp257
g19
I0
sg20
S'98397'
p258
sg22
g258
sg23
I0
sg24
S'94160'
p259
sa(dp260
g19
I0
sg20
S'93926'
p261
sg22
g261
sg23
I0
sg24
S'16176'
p262
sa(dp263
g19
I0
sg20
S'95530'
p264
sg22
g264
sg23
I0
sg24
S'22051'
p265
sa(dp266
g19
I0
sg20
S'74060'
p267
sg22
g267
sg23
I0
sg24
S'92414'
p268
sa(dp269
g19
I0
sg20
S'65197'
p270
sg22
g270
sg23
I0
sg24
S'20682'
p271
sa(dp272
g19
I0
sg20
S'37520'
p273
sg22
g273
sg23
I0
sg24
S'12377'
p274
sa(dp275
g19
I0
sg20
S'51446'
p276
sg22
g276
sg23
I0
sg24
S'33609'
p277
sa(dp278
g19
I0
sg20
S'78557'
p279
sg22
g279
sg23
I0
sg24
S'36698'
p280
sa(dp281
g19
I0
sg20
S'90362'
p282
sg22
g282
sg23
I0
sg24
S'79007'
p283
sa(dp284
g19
I0
sg20
S'71584'
p285
sg22
g285
sg23
I0
sg24
S'54791'
p286
sa(dp287
g19
I0
sg20
S'45091'
p288
sg22
g288
sg23
I0
sg24
S'30884'
p289
sa(dp290
g19
I0
sg20
S'89816'
p291
sg22
g291
sg23
I0
sg24
S'75193'
p292
sa(dp293
g19
I0
sg20
S'85541'
p294
sg22
g294
sg23
I0
sg24
S'83247'
p295
sa(dp296
g19
I0
sg20
S'34531'
p297
sg22
g297
sg23
I0
sg24
S'24058'
p298
sa(dp299
g19
I0
sg20
S'41238'
p300
sg22
g300
sg23
I0
sg24
S'86469'
p301
sa(dp302
g19
I0
sg20
S'24108'
p303
sg22
g303
sg23
I0
sg24
S'90182'
p304
sa(dp305
g19
I0
sg20
S'38414'
p306
sg22
g306
sg23
I0
sg24
S'46862'
p307
sa(dp308
g19
I0
sg20
S'84636'
p309
sg22
g309
sg23
I0
sg24
S'14432'
p310
sa(dp311
g19
I0
sg20
S'84218'
p312
sg22
g312
sg23
I0
sg24
S'12537'
p313
sa(dp314
g19
I0
sg20
S'39184'
p315
sg22
g315
sg23
I0
sg24
S'87215'
p316
sa(dp317
g19
I0
sg20
S'27992'
p318
sg22
g318
sg23
I0
sg24
S'45778'
p319
sa(dp320
g19
I0
sg20
S'70849'
p321
sg22
g321
sg23
I0
sg24
S'51537'
p322
sasS'start_list'
p323
(lp324
(lp325
(lp326
(dp327
S'ip_addr'
p328
V192.168.1.32
p329
sS'wait_id'
p330
S'97683581'
p331
sS'score'
p332
I0
sS'time'
p333
F1380442470.892135
sS'user_id'
p334
V12408
p335
sS'tank_id'
p336
I0
sa(dp337
S'user_id'
p338
V40514
p339
sS'wait_id'
p340
S'63444988'
p341
sS'score'
p342
I0
sS'time'
p343
F1380442645.816494
sS'ip_addr'
p344
V192.168.1.30
p345
sS'tank_id'
p346
I0
saaS'._._._._._._._._._._.\n| . ._._| . ._| . . |\n| |_| ._. |_._._| |_|\n| | ._| | | . ._|_. |\n| ._| | | | |_. ._| |\n| | . | | |_| . | . |\n| ._|_| |_._._|_| | |\n| | . | | ._._. | |_|\n| | |_._| | ._| |_. |\n| | |_. ._| | ._| . |\n|_|_._._|_._._._._|_|\n'
p347
aa(lp348
(lp349
(dp350
S'user_id'
p351
V12408
p352
sS'wait_id'
p353
S'99504193'
p354
sS'score'
p355
I0
sS'time'
p356
F1380442860.772237
sS'ip_addr'
p357
V192.168.1.32
p358
sS'tank_id'
p359
I0
sa(dp360
S'ip_addr'
p361
V192.168.1.30
p362
sS'wait_id'
p363
S'94614107'
p364
sS'score'
p365
I0
sS'time'
p366
F1380442893.55088
sS'user_id'
p367
V40514
p368
sS'tank_id'
p369
I0
sa(dp370
S'user_id'
p371
V34248
p372
sS'wait_id'
p373
S'81046148'
p374
sS'score'
p375
I0
sS'time'
p376
F1380442912.70695
sS'ip_addr'
p377
V192.168.1.31
p378
sS'tank_id'
p379
I0
saaS'._._._._._._._._._._.\n|_._. ._| ._._._. | |\n| ._._| ._._._| ._| |\n| ._._._._| ._._| . |\n| | . | ._._| . |_| |\n|_._| |_._._. |_. | |\n| . |_. | . |_| ._| |\n| |_._._| | | ._| . |\n|_._. | ._|_._|_. | |\n| . | |_| . | . |_| |\n|_|_._._._|_._|_._._|\n'
p380
aa(lp381
(lp382
(dp383
S'user_id'
p384
V12408
p385
sS'wait_id'
p386
S'28986406'
p387
sS'score'
p388
I0
sS'time'
p389
F1380443010.419596
sS'ip_addr'
p390
V192.168.1.32
p391
sS'tank_id'
p392
I0
sa(dp393
S'ip_addr'
p394
V192.168.1.31
p395
sS'wait_id'
p396
S'85825348'
p397
sS'score'
p398
I0
sS'time'
p399
F1380443146.683061
sS'user_id'
p400
V34248
p401
sS'tank_id'
p402
I0
saaS'._._._._._._._._._._.\n| . | . | . . |_. . |\n| |_._| |_| | | ._| |\n| ._. |_. | | | | ._|\n|_._|_. |_._|_._|_. |\n| ._._._| ._. ._. | |\n| ._. | ._._|_. |_| |\n| | ._| | ._. |_. ._|\n| |_. |_| | |_. | | |\n| | |_. |_. | |_|_. |\n|_._._|_._._|_._._._|\n'
p403
aa(lp404
(lp405
(dp406
S'user_id'
p407
V40514
p408
sS'wait_id'
p409
S'6998491'
p410
sS'score'
p411
I0
sS'time'
p412
F1380443156.768419
sS'ip_addr'
p413
V192.168.1.30
p414
sS'tank_id'
p415
I0
sa(dp416
S'ip_addr'
p417
V192.168.1.26
p418
sS'wait_id'
p419
S'85032691'
p420
sS'score'
p421
I0
sS'time'
p422
F1380443194.127443
sS'user_id'
p423
V19623
p424
sS'tank_id'
p425
I0
saaS'._._._._._._._._._._.\n| . ._| . . | ._._._|\n| | | ._| |_._| ._. |\n| | | | |_._. | | ._|\n| |_|_. ._._| | |_. |\n| ._._._| . ._|_. | |\n|_| ._._._| |_. | | |\n| ._| ._. | ._|_._| |\n|_. |_. |_._| ._. | |\n| ._|_._._._| | | | |\n|_._._._._._._._|_._|\n'
p426
aa(lp427
(lp428
(dp429
S'ip_addr'
p430
V192.168.1.30
p431
sS'wait_id'
p432
S'62605603'
p433
sS'score'
p434
I0
sS'time'
p435
F1380443300.46235
sS'user_id'
p436
V40514
p437
sS'tank_id'
p438
I0
sa(dp439
S'user_id'
p440
V12408
p441
sS'wait_id'
p442
S'2986481'
p443
sS'score'
p444
I0
sS'time'
p445
F1380443333.820829
sS'ip_addr'
p446
V192.168.1.32
p447
sS'tank_id'
p448
I0
saaS'._._._._._._._._._._.\n|_._._. | . | ._. | |\n| ._. | | | |_. |_._|\n|_. | | | |_. |_. . |\n| ._|_._| | |_. | | |\n| | ._| ._| | ._|_| |\n| | | ._| ._| | . . |\n| |_._| | ._._| | | |\n|_. ._| ._|_._. | | |\n| ._| ._|_. . |_| | |\n|_._._._._._|_._._|_|\n'
p449
aa(lp450
(lp451
(dp452
S'user_id'
p453
V86920
p454
sS'wait_id'
p455
S'50003395'
p456
sS'score'
p457
I0
sS'time'
p458
F1380443473.050616
sS'ip_addr'
p459
V192.168.1.30
p460
sS'tank_id'
p461
I0
sa(dp462
S'ip_addr'
p463
V192.168.1.31
p464
sS'wait_id'
p465
S'7161728'
p466
sS'score'
p467
I0
sS'time'
p468
F1380443475.444539
sS'user_id'
p469
V34248
p470
sS'tank_id'
p471
I0
sa(dp472
S'user_id'
p473
V12408
p474
sS'wait_id'
p475
S'58911658'
p476
sS'score'
p477
I0
sS'time'
p478
F1380443481.099215
sS'ip_addr'
p479
V192.168.1.32
p480
sS'tank_id'
p481
I0
sa(dp482
S'ip_addr'
p483
V192.168.1.26
p484
sS'wait_id'
p485
S'27126599'
p486
sS'score'
p487
I0
sS'time'
p488
F1380443543.36736
sS'user_id'
p489
V19623
p490
sS'tank_id'
p491
I0
saaS'._._._._._._._._._._.\n| . ._| ._. | ._._. |\n| |_._._| |_| |_. ._|\n| |_. ._._. | . |_. |\n|_._._|_. | |_| . |_|\n|_._. . . |_. | |_. |\n| . |_| | | ._|_._| |\n| | | ._| | | ._. | |\n| |_._|_. | | | | | |\n| | ._. |_|_._| ._| |\n|_._._|_._._._._._._|\n'
p492
aa(lp493
(lp494
(dp495
S'ip_addr'
p496
V192.168.1.32
p497
sS'wait_id'
p498
S'30101395'
p499
sS'score'
p500
I0
sS'time'
p501
F1380443837.305398
sS'user_id'
p502
V12408
p503
sS'tank_id'
p504
I0
sa(dp505
S'user_id'
p506
V34248
p507
sS'wait_id'
p508
S'96541694'
p509
sS'score'
p510
I0
sS'time'
p511
F1380443875.225062
sS'ip_addr'
p512
V192.168.1.31
p513
sS'tank_id'
p514
I0
sa(dp515
S'ip_addr'
p516
V192.168.1.29
p517
sS'wait_id'
p518
S'47052509'
p519
sS'score'
p520
I0
sS'time'
p521
F1380443881.088638
sS'user_id'
p522
V41170
p523
sS'tank_id'
p524
I0
sa(dp525
S'user_id'
p526
V91276
p527
sS'wait_id'
p528
S'8728849'
p529
sS'score'
p530
I0
sS'time'
p531
F1380443945.266071
sS'ip_addr'
p532
V192.168.1.25
p533
sS'tank_id'
p534
I0
sa(dp535
S'ip_addr'
p536
V
p537
sS'wait_id'
p538
S'6589758'
p539
sS'score'
p540
I0
sS'time'
p541
F1380443956.697654
sS'user_id'
p542
V41170
p543
sS'tank_id'
p544
I0
sa(dp545
S'user_id'
p546
V20449
p547
sS'wait_id'
p548
S'70762905'
p549
sS'score'
p550
I0
sS'time'
p551
F1380444012.782847
sS'ip_addr'
p552
V192.168.1.27
p553
sS'tank_id'
p554
I0
sa(dp555
S'ip_addr'
p556
V192.168.1.26
p557
sS'wait_id'
p558
S'51665342'
p559
sS'score'
p560
I0
sS'time'
p561
F1380444021.820651
sS'user_id'
p562
V19623
p563
sS'tank_id'
p564
I0
sa(dp565
S'user_id'
p566
V44360
p567
sS'wait_id'
p568
S'19907721'
p569
sS'score'
p570
I0
sS'time'
p571
F1380444056.017461
sS'ip_addr'
p572
V192.168.1.28
p573
sS'tank_id'
p574
I0
saaS'._._._._._._._._._._.\n| | ._. |_. . . |_. |\n| | . |_. |_| |_._. |\n| | |_. |_._._| ._| |\n| |_._| | ._| ._. | |\n|_._. | |_._._| . | |\n| ._._| | . | ._|_| |\n|_. | | ._| |_. | ._|\n| | | ._._| | ._| | |\n| ._|_._| ._| ._._| |\n|_._._._._|_._._._._|\n'
p575
aa(lp576
(lp577
(dp578
S'user_id'
p579
V12408
p580
sS'wait_id'
p581
S'76368715'
p582
sS'score'
p583
I0
sS'time'
p584
F1380444653.484897
sS'ip_addr'
p585
V192.168.1.32
p586
sS'tank_id'
p587
I0
sa(dp588
S'ip_addr'
p589
V192.168.1.26
p590
sS'wait_id'
p591
S'45199104'
p592
sS'score'
p593
I0
sS'time'
p594
F1380444662.441777
sS'user_id'
p595
V19623
p596
sS'tank_id'
p597
I0
sa(dp598
S'user_id'
p599
V12408
p600
sS'wait_id'
p601
S'42320086'
p602
sS'score'
p603
I0
sS'time'
p604
F1380444674.060747
sS'ip_addr'
p605
V192.168.1.24
p606
sS'tank_id'
p607
I0
sa(dp608
S'ip_addr'
p609
V192.168.1.23
p610
sS'wait_id'
p611
S'96719948'
p612
sS'score'
p613
I0
sS'time'
p614
F1380444674.348008
sS'user_id'
p615
V21269
p616
sS'tank_id'
p617
I0
sa(dp618
S'user_id'
p619
V44360
p620
sS'wait_id'
p621
S'85053592'
p622
sS'score'
p623
I0
sS'time'
p624
F1380444699.089734
sS'ip_addr'
p625
V192.168.1.28
p626
sS'tank_id'
p627
I0
saaS'._._._._._._._._._._.\n| ._. |_. | ._._. . |\n| | |_. | |_. | ._|_|\n| |_._._. | ._|_._. |\n| | . | ._| | . | ._|\n| ._| |_| ._|_| | | |\n| | |_. | | ._. |_| |\n|_._. |_._| | ._| . |\n| ._| |_._. |_. | | |\n| . |_. | ._| |_._| |\n|_|_._._._|_._._._._|\n'
p628
aa(lp629
(lp630
(dp631
S'ip_addr'
p632
V192.168.3.4
p633
sS'wait_id'
p634
S'14538721'
p635
sS'score'
p636
I100
sS'time'
p637
F1380606774.120604
sS'user_id'
p638
Vtest
p639
sS'tank_id'
p640
I0
sa(dp641
S'user_id'
p642
Vtest2
p643
sS'wait_id'
p644
S'99978373'
p645
sS'score'
p646
I200
sS'time'
p647
F1380606741.255941
sS'ip_addr'
p648
V192.168.3.155
p649
sS'tank_id'
p650
I0
saaS'._._._._._._._._._._.\n| ._._._._. | | ._. |\n|_._| | ._._|_._| . |\n| . . | | ._._._._| |\n| | |_|_._| . ._._| |\n| |_._._. | |_._._._|\n| | . | ._| | | ._. |\n| | |_._| ._|_._| . |\n| |_. | ._| ._. | | |\n|_. | |_. |_. |_._| |\n|_._|_._._._._|_._._|\n'
p651
aa(lp652
(lp653
(dp654
S'user_id'
p655
Vtest
p656
sS'wait_id'
p657
S'17790222'
p658
sS'score'
p659
I100
sS'time'
p660
F1380607055.554973
sS'ip_addr'
p661
V192.168.3.4
p662
sS'tank_id'
p663
I0
sa(dp664
S'ip_addr'
p665
V192.168.3.155
p666
sS'wait_id'
p667
S'6601905'
p668
sS'score'
p669
I200
sS'time'
p670
F1380607030.124747
sS'user_id'
p671
Vtest2
p672
sS'tank_id'
p673
I0
saaS'._._._._._._._._._._.\n| . ._. | ._._. ._._|\n|_| | | |_| . |_._. |\n| ._| | | ._| | ._. |\n|_. | ._| | | | | ._|\n| ._|_. ._|_._._|_. |\n| ._. |_| ._. | | ._|\n| | |_._._| ._|_._. |\n| | . | | ._| . | ._|\n| | | | |_. | | |_. |\n|_._|_._._|_._|_|_._|\n'
p674
aa(lp675
(lp676
(dp677
S'user_id'
p678
Vtest
p679
sS'wait_id'
p680
S'63652771'
p681
sS'score'
p682
I100
sS'time'
p683
F1380607498.724292
sS'ip_addr'
p684
V192.168.3.4
p685
sS'tank_id'
p686
I0
sa(dp687
S'user_id'
p688
Vtest
p689
sS'wait_id'
p690
S'41205144'
p691
sS'score'
p692
I100
sS'time'
p693
F1380607622.636333
sS'ip_addr'
p694
V192.168.3.4
p695
sS'tank_id'
p696
I0
sa(dp697
S'ip_addr'
p698
V192.168.3.155
p699
sS'wait_id'
p700
S'33372155'
p701
sS'score'
p702
I200
sS'time'
p703
F1380607569.059169
sS'user_id'
p704
Vtest2
p705
sS'tank_id'
p706
I0
saaS'._._._._._._._._._._.\n| ._._. ._._. ._._| |\n|_| ._._| . |_| ._._|\n| ._| . | | | ._| . |\n| | ._| | |_._|_. | |\n|_._| . |_._._._._| |\n| ._._|_._. | ._. | |\n|_. | ._| ._| | | | |\n| ._|_. | | ._| | | |\n| | . |_._| |_. |_._|\n|_._|_._._._._._._._|\n'
p707
aa(lp708
(lp709
(dp710
S'ip_addr'
p711
V192.168.3.4
p712
sS'wait_id'
p713
S'95884125'
p714
sS'score'
p715
I100
sS'time'
p716
F1380607655.768101
sS'user_id'
p717
Vtest
p718
sS'tank_id'
p719
I0
sa(dp720
S'user_id'
p721
Vtest2
p722
sS'wait_id'
p723
S'71114036'
p724
sS'score'
p725
I200
sS'time'
p726
F1380607654.632364
sS'ip_addr'
p727
V192.168.3.155
p728
sS'tank_id'
p729
I0
saaS'._._._._._._._._._._.\n| ._. | ._. . |_. . |\n| . | |_| ._|_. | | |\n|_| |_. | . |_._._| |\n| ._| | | |_. |_._. |\n| |_._. |_. | | . |_|\n| | ._| | ._|_. |_. |\n|_._| | | | . |_._| |\n| | ._._|_| |_._. | |\n| | |_. ._._| ._| | |\n|_._._._|_._._._._._|\n'
p730
aa(lp731
(lp732
(dp733
S'user_id'
p734
Vtest
p735
sS'wait_id'
p736
S'70465448'
p737
sS'score'
p738
I100
sS'time'
p739
F1380607779.694901
sS'ip_addr'
p740
V192.168.3.4
p741
sS'tank_id'
p742
I0
sa(dp743
S'ip_addr'
p744
V192.168.3.155
p745
sS'wait_id'
p746
S'77178856'
p747
sS'score'
p748
I200
sS'time'
p749
F1380607769.08273
sS'user_id'
p750
Vtest2
p751
sS'tank_id'
p752
I0
saaS'._._._._._._._._._._.\n|_._._. ._._. | . . |\n| ._. |_| . |_. | |_|\n| | |_._._|_. | |_. |\n| |_. ._| ._._|_. | |\n|_._| | ._| ._. |_| |\n| | ._._|_. | | | . |\n| | | . | ._| ._| |_|\n| ._| |_._| | | ._. |\n| | ._| | . | |_._| |\n|_._|_._._|_._._._._|\n'
p753
aa(lp754
(lp755
(dp756
S'ip_addr'
p757
V192.168.3.4
p758
sS'wait_id'
p759
S'64276838'
p760
sS'score'
p761
I100
sS'time'
p762
F1380607857.242593
sS'user_id'
p763
Vtest
p764
sS'tank_id'
p765
I0
sa(dp766
S'user_id'
p767
Vtest2
p768
sS'wait_id'
p769
S'78624248'
p770
sS'score'
p771
I200
sS'time'
p772
F1380607849.804129
sS'ip_addr'
p773
V192.168.3.155
p774
sS'tank_id'
p775
I0
saaS'._._._._._._._._._._.\n| |_. ._. | ._._._. |\n|_. | | ._|_. | ._._|\n| |_._| |_. ._| | ._|\n| ._. | | ._| ._|_. |\n| | . |_._| ._| ._. |\n| | |_._._| | | . | |\n| |_._. | ._| ._| | |\n|_. | |_._| ._| ._| |\n| ._|_._._._._| | | |\n|_._._._._._._._|_._|\n'
p776
aa(lp777
(lp778
(dp779
S'user_id'
p780
Vtest
p781
sS'wait_id'
p782
S'12652730'
p783
sS'score'
p784
I100
sS'time'
p785
F1380607952.948302
sS'ip_addr'
p786
V192.168.3.4
p787
sS'tank_id'
p788
I0
sa(dp789
S'ip_addr'
p790
V192.168.3.155
p791
sS'wait_id'
p792
S'18933592'
p793
sS'score'
p794
I200
sS'time'
p795
F1380607866.107344
sS'user_id'
p796
Vtest2
p797
sS'tank_id'
p798
I0
saaS'._._._._._._._._._._.\n| ._| . | ._._. ._._|\n| | ._|_._. | ._| . |\n| ._._| . |_|_._._| |\n| ._| ._|_._._._._. |\n|_| ._| . ._. | . | |\n| ._| ._|_. |_._| | |\n|_. | |_. | | . |_| |\n|_._|_. | |_._| | ._|\n| ._._._| . | | | | |\n|_._._._._|_._|_._._|\n'
p799
aa(lp800
(lp801
(dp802
S'user_id'
p803
Vtest
p804
sS'wait_id'
p805
S'98493857'
p806
sS'score'
p807
I100
sS'time'
p808
F1382775119.904442
sS'ip_addr'
p809
Vlocalhost
p810
sS'tank_id'
p811
I0
sa(dp812
S'ip_addr'
p813
Vlocalhost
p814
sS'wait_id'
p815
S'16237853'
p816
sS'score'
p817
I200
sS'time'
p818
F1382775130.3949
sS'user_id'
p819
Vtest2
p820
sS'tank_id'
p821
I0
saaS'._._._._._._._._._._.\n|_. ._._. ._._| . | |\n| ._| ._._| ._._| | |\n|_. |_| . |_. | |_. |\n| . | ._| |_._| | ._|\n| |_| | |_._. . |_. |\n| . | | | ._._|_. | |\n| |_._| | | | ._._| |\n| | . ._| |_._._._| |\n| |_| | ._| ._. | ._|\n|_._._|_._._._|_._._|\n'
p822
aa(lp823
(lp824
(dp825
S'user_id'
p826
Vtest
p827
sS'wait_id'
p828
S'56310568'
p829
sS'score'
p830
I100
sS'time'
p831
F1382775349.480133
sS'ip_addr'
p832
V127.0.0.1
p833
sS'tank_id'
p834
I0
sa(dp835
S'ip_addr'
p836
V127.0.0.1
p837
sS'wait_id'
p838
S'59067009'
p839
sS'score'
p840
I200
sS'time'
p841
F1382775347.654789
sS'user_id'
p842
Vtest2
p843
sS'tank_id'
p844
I0
saaS'._._._._._._._._._._.\n| ._. . | . ._| . . |\n| | | | |_| ._._| |_|\n|_._| |_. | | ._|_. |\n| ._._| | |_._| . | |\n| | . | ._| . | |_. |\n| | |_._._._|_._| ._|\n| |_| ._._|_._. |_. |\n| . | | ._. . ._._| |\n| | | | | ._|_| . | |\n|_|_._|_|_._._._|_._|\n'
p845
aa(lp846
(lp847
(dp848
S'user_id'
p849
V86920
p850
sS'wait_id'
p851
S'31459299'
p852
sS'score'
p853
I0
sS'time'
p854
F1408711202.893736
sS'ip_addr'
p855
V127.0.0.1
p856
sS'tank_id'
p857
I0
sa(dp858
S'ip_addr'
p859
V127.0.0.1
p860
sS'wait_id'
p861
S'47536455'
p862
sS'score'
p863
I0
sS'time'
p864
F1408711225.710472
sS'user_id'
p865
V64686
p866
sS'tank_id'
p867
I0
saaS'._._._._._._._._._._.\n|_._. ._. | ._. | . |\n| . |_. | |_._|_._| |\n| |_. ._|_._._._._. |\n| |_._| ._._._| | ._|\n| | ._._| . ._._|_. |\n| | | . | | | . ._| |\n|_._| |_._|_| |_. | |\n| . | ._._._._| |_._|\n| |_._| . | . |_._. |\n|_._._._|_._|_._._._|\n'
p868
aa(lp869
(lp870
(dp871
S'ip_addr'
p872
V127.0.0.1
p873
sS'wait_id'
p874
S'17230700'
p875
sS'score'
p876
I0
sS'time'
p877
F1408714433.635987
sS'user_id'
p878
V95874
p879
sS'tank_id'
p880
I0
sa(dp881
S'user_id'
p882
V68797
p883
sS'wait_id'
p884
S'95968102'
p885
sS'score'
p886
I0
sS'time'
p887
F1408714450.115847
sS'ip_addr'
p888
V127.0.0.1
p889
sS'tank_id'
p890
I0
saaS'._._._._._._._._._._.\n| ._._._._._. | . ._|\n| ._._. | ._._| |_. |\n| | ._| | | ._._| ._|\n| ._| ._| |_._. |_. |\n|_| ._| ._| ._| ._| |\n| ._| ._._._| ._| | |\n| . | | | ._._| ._| |\n| | | | | |_. | | . |\n| | |_._|_._. | | | |\n|_|_._._._._._|_._|_|\n'
p891
aa(lp892
(lp893
(dp894
S'user_id'
p895
V95874
p896
sS'wait_id'
p897
S'26162842'
p898
sS'score'
p899
I0
sS'time'
p900
F1408714624.887468
sS'ip_addr'
p901
V127.0.0.1
p902
sS'tank_id'
p903
I0
sa(dp904
S'ip_addr'
p905
V127.0.0.1
p906
sS'wait_id'
p907
S'51985730'
p908
sS'score'
p909
I0
sS'time'
p910
F1408714627.069571
sS'user_id'
p911
V68797
p912
sS'tank_id'
p913
I0
saaS'._._._._._._._._._._.\n|_._._. | ._. ._. | |\n| ._. | |_. | |_._._|\n| |_. | . | |_._._. |\n|_. | |_| ._| ._. | |\n| ._|_. |_| ._| |_. |\n| | . |_. | | . ._| |\n| ._| |_._._|_|_. ._|\n|_. | | ._. | . |_. |\n| ._| |_. |_._| | ._|\n|_._|_._._|_._._|_._|\n'
p914
aa(lp915
(lp916
(dp917
S'ip_addr'
p918
V127.0.0.1
p919
sS'wait_id'
p920
S'34417020'
p921
sS'score'
p922
I0
sS'time'
p923
F1408715097.170348
sS'user_id'
p924
V36697
p925
sS'tank_id'
p926
I0
sa(dp927
S'user_id'
p928
V29912
p929
sS'wait_id'
p930
S'88695527'
p931
sS'score'
p932
I0
sS'time'
p933
F1408715098.281481
sS'ip_addr'
p934
V127.0.0.1
p935
sS'tank_id'
p936
I0
saaS'._._._._._._._._._._.\n|_. | ._._._. ._._. |\n| ._| ._._| ._| . | |\n| | ._| ._. |_._| | |\n| | | . |_._| . |_. |\n| | | | | ._._|_. | |\n| ._| |_| ._. | ._| |\n| | |_._._| | | | | |\n|_._. | | ._| | |_._|\n| ._._| |_. |_|_._. |\n|_._._._._|_._._._._|\n'
p937
aa(lp938
(lp939
(dp940
S'user_id'
p941
V29912
p942
sS'wait_id'
p943
S'98268624'
p944
sS'score'
p945
I0
sS'time'
p946
F1408724808.852078
sS'ip_addr'
p947
V127.0.0.1
p948
sS'tank_id'
p949
I0
sa(dp950
S'ip_addr'
p951
V127.0.0.1
p952
sS'wait_id'
p953
S'12039508'
p954
sS'score'
p955
I0
sS'time'
p956
F1408724825.337081
sS'user_id'
p957
V36697
p958
sS'tank_id'
p959
I0
saaS'._._._._._._._._._._.\n| | ._. ._._._._._. |\n| ._._|_._._. | . | |\n| | ._._._. | | |_._|\n| | |_._._. | | |_. |\n| |_._._. |_._|_. | |\n|_._._. | | | . |_. |\n| ._| ._| |_._| . | |\n| | ._| | | ._| |_| |\n| | | . | | | . | ._|\n|_._._|_|_._|_|_._._|\n'
p960
aa(lp961
(lp962
(dp963
S'ip_addr'
p964
V127.0.0.1
p965
sS'wait_id'
p966
S'42737037'
p967
sS'score'
p968
I0
sS'time'
p969
F1408725376.503366
sS'user_id'
p970
V36697
p971
sS'tank_id'
p972
I0
sa(dp973
S'user_id'
p974
V78925
p975
sS'wait_id'
p976
S'43600775'
p977
sS'score'
p978
I0
sS'time'
p979
F1408725392.935572
sS'ip_addr'
p980
V127.0.0.1
p981
sS'tank_id'
p982
I0
saaS'._._._._._._._._._._.\n| ._. |_._. . ._. | |\n| . | | . |_| | |_. |\n| | |_._|_._._| ._| |\n|_| | ._._._._. . | |\n| ._|_. |_. | |_| ._|\n| | ._._| . |_. |_._|\n| |_._. | | | |_._. |\n| ._. |_. |_._| . | |\n| | | |_._| ._._| | |\n|_._|_._._._._._|_._|\n'
p983
aa(lp984
(lp985
(dp986
S'user_id'
p987
V78925
p988
sS'wait_id'
p989
S'50829300'
p990
sS'score'
p991
I0
sS'time'
p992
F1408725599.315084
sS'ip_addr'
p993
V127.0.0.1
p994
sS'tank_id'
p995
I0
sa(dp996
S'ip_addr'
p997
V127.0.0.1
p998
sS'wait_id'
p999
S'87215104'
p1000
sS'score'
p1001
I0
sS'time'
p1002
F1408725615.059947
sS'user_id'
p1003
V36697
p1004
sS'tank_id'
p1005
I0
saaS'._._._._._._._._._._.\n| . ._. ._._. |_. . |\n| | |_._| . |_. | | |\n|_|_._._. |_. |_._|_|\n| . | . |_._|_. ._. |\n|_| | |_. | . |_| . |\n| |_._| | | |_._._| |\n| | ._._._| |_._. | |\n| ._|_. . |_._. | | |\n|_._. | | | . | | | |\n|_._._._|_._|_._|_._|\n'
p1006
aa(lp1007
(lp1008
(dp1009
S'ip_addr'
p1010
V127.0.0.1
p1011
sS'wait_id'
p1012
S'12507670'
p1013
sS'score'
p1014
I0
sS'time'
p1015
F1408725649.887778
sS'user_id'
p1016
V36697
p1017
sS'tank_id'
p1018
I0
sa(dp1019
S'user_id'
p1020
V78925
p1021
sS'wait_id'
p1022
S'90848311'
p1023
sS'score'
p1024
I0
sS'time'
p1025
F1408725651.307479
sS'ip_addr'
p1026
V127.0.0.1
p1027
sS'tank_id'
p1028
I0
saaS'._._._._._._._._._._.\n| . | ._._. | . ._. |\n| |_| | . |_._|_. | |\n|_. |_._|_._. | | |_|\n| ._. |_. | ._| |_._|\n| | | | . | | . | . |\n| |_._._|_| | |_._| |\n| . | ._._._| ._._| |\n| | |_._._. |_| . | |\n| |_._. | ._| ._| | |\n|_._._|_._._._|_._._|\n'
p1029
aa(lp1030
(lp1031
(dp1032
S'user_id'
p1033
V36697
p1034
sS'wait_id'
p1035
S'66268678'
p1036
sS'score'
p1037
I0
sS'time'
p1038
F1408725728.411857
sS'ip_addr'
p1039
V127.0.0.1
p1040
sS'tank_id'
p1041
I0
sa(dp1042
S'ip_addr'
p1043
V127.0.0.1
p1044
sS'wait_id'
p1045
S'41890609'
p1046
sS'score'
p1047
I0
sS'time'
p1048
F1408725729.626211
sS'user_id'
p1049
V78925
p1050
sS'tank_id'
p1051
I0
saaS'._._._._._._._._._._.\n| ._. ._._| . ._._._|\n|_| . | ._._|_._._. |\n| ._|_| | ._._. ._| |\n|_. | ._| |_. |_. | |\n| ._| | ._| ._| . | |\n| . | |_._._| ._| | |\n| |_._| ._._._| ._| |\n| | ._._. | ._._| | |\n| |_| ._._|_. | ._| |\n|_._._|_._._._|_._._|\n'
p1052
aa(lp1053
(lp1054
(dp1055
S'ip_addr'
p1056
V127.0.0.1
p1057
sS'wait_id'
p1058
S'74931417'
p1059
sS'score'
p1060
I0
sS'time'
p1061
F1408726429.320045
sS'user_id'
p1062
V36697
p1063
sS'tank_id'
p1064
I0
sa(dp1065
S'user_id'
p1066
V24719
p1067
sS'wait_id'
p1068
S'96428016'
p1069
sS'score'
p1070
I0
sS'time'
p1071
F1408726445.076636
sS'ip_addr'
p1072
V127.0.0.1
p1073
sS'tank_id'
p1074
I0
saaS'._._._._._._._._._._.\n| | ._._. . |_._. . |\n| ._|_. | |_._. |_| |\n| | . | |_._. |_. | |\n|_._|_._. | ._| | | |\n| ._._. |_| | | ._| |\n| | . |_._._| |_. | |\n| | |_. | ._| ._._| |\n| |_._| | | ._|_. . |\n| ._._| | |_. | ._| |\n|_._._._|_._._._|_._|\n'
p1075
aa(lp1076
(lp1077
(dp1078
S'user_id'
p1079
V24719
p1080
sS'wait_id'
p1081
S'31619090'
p1082
sS'score'
p1083
I0
sS'time'
p1084
F1408726487.055152
sS'ip_addr'
p1085
V127.0.0.1
p1086
sS'tank_id'
p1087
I0
sa(dp1088
S'ip_addr'
p1089
V127.0.0.1
p1090
sS'wait_id'
p1091
S'46772650'
p1092
sS'score'
p1093
I0
sS'time'
p1094
F1408726604.971319
sS'user_id'
p1095
V13252
p1096
sS'tank_id'
p1097
I0
sa(dp1098
S'user_id'
p1099
V50168
p1100
sS'wait_id'
p1101
S'13201573'
p1102
sS'score'
p1103
I0
sS'time'
p1104
F1408726608.367685
sS'ip_addr'
p1105
V127.0.0.1
p1106
sS'tank_id'
p1107
I0
saaS'._._._._._._._._._._.\n| | ._. |_. . |_._. |\n| |_._|_._._| | . | |\n|_._. | ._. |_._| | |\n| . ._| | | ._._| | |\n| |_| ._| |_._. |_. |\n| | ._| ._. | |_. | |\n| | | . |_._._. | | |\n| | |_|_. | ._| |_._|\n| |_. | ._| . |_._. |\n|_._._._|_._|_._._._|\n'
p1108
aa(lp1109
(lp1110
(dp1111
S'user_id'
p1112
V13252
p1113
sS'wait_id'
p1114
S'14614787'
p1115
sS'score'
p1116
I0
sS'time'
p1117
F1408727616.575569
sS'ip_addr'
p1118
V127.0.0.1
p1119
sS'tank_id'
p1120
I0
sa(dp1121
S'ip_addr'
p1122
V127.0.0.1
p1123
sS'wait_id'
p1124
S'37613143'
p1125
sS'score'
p1126
I0
sS'time'
p1127
F1408727617.637533
sS'user_id'
p1128
V13252
p1129
sS'tank_id'
p1130
I0
sa(dp1131
S'user_id'
p1132
V13252
p1133
sS'wait_id'
p1134
S'99690626'
p1135
sS'score'
p1136
I0
sS'time'
p1137
F1408727618.703108
sS'ip_addr'
p1138
V127.0.0.1
p1139
sS'tank_id'
p1140
I0
sa(dp1141
S'ip_addr'
p1142
V127.0.0.1
p1143
sS'wait_id'
p1144
S'98654873'
p1145
sS'score'
p1146
I0
sS'time'
p1147
F1408727619.771102
sS'user_id'
p1148
V13252
p1149
sS'tank_id'
p1150
I0
sa(dp1151
S'user_id'
p1152
V13252
p1153
sS'wait_id'
p1154
S'27536456'
p1155
sS'score'
p1156
I0
sS'time'
p1157
F1408727620.838507
sS'ip_addr'
p1158
V127.0.0.1
p1159
sS'tank_id'
p1160
I0
sa(dp1161
S'ip_addr'
p1162
V127.0.0.1
p1163
sS'wait_id'
p1164
S'10374963'
p1165
sS'score'
p1166
I0
sS'time'
p1167
F1408727621.904702
sS'user_id'
p1168
V13252
p1169
sS'tank_id'
p1170
I0
sa(dp1171
S'user_id'
p1172
V13252
p1173
sS'wait_id'
p1174
S'52708200'
p1175
sS'score'
p1176
I0
sS'time'
p1177
F1408727622.974713
sS'ip_addr'
p1178
V127.0.0.1
p1179
sS'tank_id'
p1180
I0
sa(dp1181
S'ip_addr'
p1182
V127.0.0.1
p1183
sS'wait_id'
p1184
S'49301514'
p1185
sS'score'
p1186
I0
sS'time'
p1187
F1408727624.048555
sS'user_id'
p1188
V13252
p1189
sS'tank_id'
p1190
I0
sa(dp1191
S'user_id'
p1192
V13252
p1193
sS'wait_id'
p1194
S'5706373'
p1195
sS'score'
p1196
I0
sS'time'
p1197
F1408727625.113263
sS'ip_addr'
p1198
V127.0.0.1
p1199
sS'tank_id'
p1200
I0
sa(dp1201
S'ip_addr'
p1202
V127.0.0.1
p1203
sS'wait_id'
p1204
S'21648720'
p1205
sS'score'
p1206
I0
sS'time'
p1207
F1408727626.189642
sS'user_id'
p1208
V13252
p1209
sS'tank_id'
p1210
I0
sa(dp1211
S'user_id'
p1212
V13252
p1213
sS'wait_id'
p1214
S'28683811'
p1215
sS'score'
p1216
I0
sS'time'
p1217
F1408727627.266125
sS'ip_addr'
p1218
V127.0.0.1
p1219
sS'tank_id'
p1220
I0
sa(dp1221
S'ip_addr'
p1222
V127.0.0.1
p1223
sS'wait_id'
p1224
S'73611599'
p1225
sS'score'
p1226
I0
sS'time'
p1227
F1408727628.338641
sS'user_id'
p1228
V13252
p1229
sS'tank_id'
p1230
I0
sa(dp1231
S'user_id'
p1232
V13252
p1233
sS'wait_id'
p1234
S'38696871'
p1235
sS'score'
p1236
I0
sS'time'
p1237
F1408727629.417615
sS'ip_addr'
p1238
V127.0.0.1
p1239
sS'tank_id'
p1240
I0
sa(dp1241
S'ip_addr'
p1242
V127.0.0.1
p1243
sS'wait_id'
p1244
S'36129787'
p1245
sS'score'
p1246
I0
sS'time'
p1247
F1408727630.480683
sS'user_id'
p1248
V13252
p1249
sS'tank_id'
p1250
I0
sa(dp1251
S'user_id'
p1252
V13252
p1253
sS'wait_id'
p1254
S'6910278'
p1255
sS'score'
p1256
I0
sS'time'
p1257
F1408727631.544817
sS'ip_addr'
p1258
V127.0.0.1
p1259
sS'tank_id'
p1260
I0
sa(dp1261
S'ip_addr'
p1262
V127.0.0.1
p1263
sS'wait_id'
p1264
S'61333091'
p1265
sS'score'
p1266
I0
sS'time'
p1267
F1408727632.611789
sS'user_id'
p1268
V13252
p1269
sS'tank_id'
p1270
I0
sa(dp1271
S'user_id'
p1272
V13252
p1273
sS'wait_id'
p1274
S'39888250'
p1275
sS'score'
p1276
I0
sS'time'
p1277
F1408727633.692002
sS'ip_addr'
p1278
V127.0.0.1
p1279
sS'tank_id'
p1280
I0
sa(dp1281
S'ip_addr'
p1282
V127.0.0.1
p1283
sS'wait_id'
p1284
S'87524020'
p1285
sS'score'
p1286
I0
sS'time'
p1287
F1408727634.761332
sS'user_id'
p1288
V13252
p1289
sS'tank_id'
p1290
I0
sa(dp1291
S'user_id'
p1292
V13252
p1293
sS'wait_id'
p1294
S'58893872'
p1295
sS'score'
p1296
I0
sS'time'
p1297
F1408727635.829282
sS'ip_addr'
p1298
V127.0.0.1
p1299
sS'tank_id'
p1300
I0
sa(dp1301
S'ip_addr'
p1302
V127.0.0.1
p1303
sS'wait_id'
p1304
S'77306038'
p1305
sS'score'
p1306
I0
sS'time'
p1307
F1408727636.905935
sS'user_id'
p1308
V13252
p1309
sS'tank_id'
p1310
I0
sa(dp1311
S'user_id'
p1312
V13252
p1313
sS'wait_id'
p1314
S'78411986'
p1315
sS'score'
p1316
I0
sS'time'
p1317
F1408727637.977397
sS'ip_addr'
p1318
V127.0.0.1
p1319
sS'tank_id'
p1320
I0
sa(dp1321
S'ip_addr'
p1322
V127.0.0.1
p1323
sS'wait_id'
p1324
S'37106467'
p1325
sS'score'
p1326
I0
sS'time'
p1327
F1408727639.03698
sS'user_id'
p1328
V13252
p1329
sS'tank_id'
p1330
I0
sa(dp1331
S'user_id'
p1332
V13252
p1333
sS'wait_id'
p1334
S'30649165'
p1335
sS'score'
p1336
I0
sS'time'
p1337
F1408727640.098425
sS'ip_addr'
p1338
V127.0.0.1
p1339
sS'tank_id'
p1340
I0
sa(dp1341
S'ip_addr'
p1342
V127.0.0.1
p1343
sS'wait_id'
p1344
S'38193772'
p1345
sS'score'
p1346
I0
sS'time'
p1347
F1408727641.168402
sS'user_id'
p1348
V13252
p1349
sS'tank_id'
p1350
I0
sa(dp1351
S'user_id'
p1352
V13252
p1353
sS'wait_id'
p1354
S'47744892'
p1355
sS'score'
p1356
I0
sS'time'
p1357
F1408727642.230462
sS'ip_addr'
p1358
V127.0.0.1
p1359
sS'tank_id'
p1360
I0
sa(dp1361
S'ip_addr'
p1362
V127.0.0.1
p1363
sS'wait_id'
p1364
S'74686556'
p1365
sS'score'
p1366
I0
sS'time'
p1367
F1408727643.296879
sS'user_id'
p1368
V13252
p1369
sS'tank_id'
p1370
I0
sa(dp1371
S'user_id'
p1372
V13252
p1373
sS'wait_id'
p1374
S'3031483'
p1375
sS'score'
p1376
I0
sS'time'
p1377
F1408727644.363708
sS'ip_addr'
p1378
V127.0.0.1
p1379
sS'tank_id'
p1380
I0
sa(dp1381
S'ip_addr'
p1382
V127.0.0.1
p1383
sS'wait_id'
p1384
S'50422861'
p1385
sS'score'
p1386
I0
sS'time'
p1387
F1408727645.431855
sS'user_id'
p1388
V13252
p1389
sS'tank_id'
p1390
I0
sa(dp1391
S'user_id'
p1392
V13252
p1393
sS'wait_id'
p1394
S'32209151'
p1395
sS'score'
p1396
I0
sS'time'
p1397
F1408727646.495417
sS'ip_addr'
p1398
V127.0.0.1
p1399
sS'tank_id'
p1400
I0
sa(dp1401
S'ip_addr'
p1402
V127.0.0.1
p1403
sS'wait_id'
p1404
S'96117703'
p1405
sS'score'
p1406
I0
sS'time'
p1407
F1408727647.55934
sS'user_id'
p1408
V13252
p1409
sS'tank_id'
p1410
I0
sa(dp1411
S'user_id'
p1412
V13252
p1413
sS'wait_id'
p1414
S'52682853'
p1415
sS'score'
p1416
I0
sS'time'
p1417
F1408727648.62609
sS'ip_addr'
p1418
V127.0.0.1
p1419
sS'tank_id'
p1420
I0
sa(dp1421
S'ip_addr'
p1422
V127.0.0.1
p1423
sS'wait_id'
p1424
S'93832566'
p1425
sS'score'
p1426
I0
sS'time'
p1427
F1408727649.703206
sS'user_id'
p1428
V13252
p1429
sS'tank_id'
p1430
I0
sa(dp1431
S'user_id'
p1432
V13252
p1433
sS'wait_id'
p1434
S'47169552'
p1435
sS'score'
p1436
I0
sS'time'
p1437
F1408727650.772734
sS'ip_addr'
p1438
V127.0.0.1
p1439
sS'tank_id'
p1440
I0
sa(dp1441
S'ip_addr'
p1442
V127.0.0.1
p1443
sS'wait_id'
p1444
S'51711061'
p1445
sS'score'
p1446
I0
sS'time'
p1447
F1408727651.847793
sS'user_id'
p1448
V13252
p1449
sS'tank_id'
p1450
I0
sa(dp1451
S'user_id'
p1452
V13252
p1453
sS'wait_id'
p1454
S'39584592'
p1455
sS'score'
p1456
I0
sS'time'
p1457
F1408727652.924267
sS'ip_addr'
p1458
V127.0.0.1
p1459
sS'tank_id'
p1460
I0
sa(dp1461
S'ip_addr'
p1462
V127.0.0.1
p1463
sS'wait_id'
p1464
S'6458639'
p1465
sS'score'
p1466
I0
sS'time'
p1467
F1408727654.004222
sS'user_id'
p1468
V13252
p1469
sS'tank_id'
p1470
I0
sa(dp1471
S'user_id'
p1472
V13252
p1473
sS'wait_id'
p1474
S'89766801'
p1475
sS'score'
p1476
I0
sS'time'
p1477
F1408727655.084899
sS'ip_addr'
p1478
V127.0.0.1
p1479
sS'tank_id'
p1480
I0
sa(dp1481
S'ip_addr'
p1482
V127.0.0.1
p1483
sS'wait_id'
p1484
S'98815761'
p1485
sS'score'
p1486
I0
sS'time'
p1487
F1408727656.168522
sS'user_id'
p1488
V13252
p1489
sS'tank_id'
p1490
I0
sa(dp1491
S'user_id'
p1492
V13252
p1493
sS'wait_id'
p1494
S'1231343'
p1495
sS'score'
p1496
I0
sS'time'
p1497
F1408727657.230428
sS'ip_addr'
p1498
V127.0.0.1
p1499
sS'tank_id'
p1500
I0
sa(dp1501
S'ip_addr'
p1502
V127.0.0.1
p1503
sS'wait_id'
p1504
S'40091833'
p1505
sS'score'
p1506
I0
sS'time'
p1507
F1408727658.294775
sS'user_id'
p1508
V13252
p1509
sS'tank_id'
p1510
I0
sa(dp1511
S'user_id'
p1512
V13252
p1513
sS'wait_id'
p1514
S'11303659'
p1515
sS'score'
p1516
I0
sS'time'
p1517
F1408727659.365027
sS'ip_addr'
p1518
V127.0.0.1
p1519
sS'tank_id'
p1520
I0
sa(dp1521
S'ip_addr'
p1522
V127.0.0.1
p1523
sS'wait_id'
p1524
S'36637955'
p1525
sS'score'
p1526
I0
sS'time'
p1527
F1408727660.433293
sS'user_id'
p1528
V13252
p1529
sS'tank_id'
p1530
I0
sa(dp1531
S'user_id'
p1532
V13252
p1533
sS'wait_id'
p1534
S'79123768'
p1535
sS'score'
p1536
I0
sS'time'
p1537
F1408727661.495377
sS'ip_addr'
p1538
V127.0.0.1
p1539
sS'tank_id'
p1540
I0
sa(dp1541
S'ip_addr'
p1542
V127.0.0.1
p1543
sS'wait_id'
p1544
S'2674249'
p1545
sS'score'
p1546
I0
sS'time'
p1547
F1408727662.567003
sS'user_id'
p1548
V13252
p1549
sS'tank_id'
p1550
I0
sa(dp1551
S'user_id'
p1552
V13252
p1553
sS'wait_id'
p1554
S'34273003'
p1555
sS'score'
p1556
I0
sS'time'
p1557
F1408727663.637053
sS'ip_addr'
p1558
V127.0.0.1
p1559
sS'tank_id'
p1560
I0
sa(dp1561
S'ip_addr'
p1562
V127.0.0.1
p1563
sS'wait_id'
p1564
S'67682840'
p1565
sS'score'
p1566
I0
sS'time'
p1567
F1408727664.721735
sS'user_id'
p1568
V13252
p1569
sS'tank_id'
p1570
I0
sa(dp1571
S'user_id'
p1572
V13252
p1573
sS'wait_id'
p1574
S'72589'
p1575
sS'score'
p1576
I0
sS'time'
p1577
F1408727665.792569
sS'ip_addr'
p1578
V127.0.0.1
p1579
sS'tank_id'
p1580
I0
sa(dp1581
S'ip_addr'
p1582
V127.0.0.1
p1583
sS'wait_id'
p1584
S'74929886'
p1585
sS'score'
p1586
I0
sS'time'
p1587
F1408727666.862069
sS'user_id'
p1588
V13252
p1589
sS'tank_id'
p1590
I0
sa(dp1591
S'user_id'
p1592
V13252
p1593
sS'wait_id'
p1594
S'23934272'
p1595
sS'score'
p1596
I0
sS'time'
p1597
F1408727667.948056
sS'ip_addr'
p1598
V127.0.0.1
p1599
sS'tank_id'
p1600
I0
sa(dp1601
S'ip_addr'
p1602
V127.0.0.1
p1603
sS'wait_id'
p1604
S'55790701'
p1605
sS'score'
p1606
I0
sS'time'
p1607
F1408727669.024934
sS'user_id'
p1608
V13252
p1609
sS'tank_id'
p1610
I0
sa(dp1611
S'user_id'
p1612
V13252
p1613
sS'wait_id'
p1614
S'5714018'
p1615
sS'score'
p1616
I0
sS'time'
p1617
F1408727706.650994
sS'ip_addr'
p1618
V127.0.0.1
p1619
sS'tank_id'
p1620
I0
sa(dp1621
S'ip_addr'
p1622
V127.0.0.1
p1623
sS'wait_id'
p1624
S'54787581'
p1625
sS'score'
p1626
I0
sS'time'
p1627
F1408727707.733491
sS'user_id'
p1628
V13252
p1629
sS'tank_id'
p1630
I0
sa(dp1631
S'user_id'
p1632
V13252
p1633
sS'wait_id'
p1634
S'3120172'
p1635
sS'score'
p1636
I0
sS'time'
p1637
F1408727708.809589
sS'ip_addr'
p1638
V127.0.0.1
p1639
sS'tank_id'
p1640
I0
sa(dp1641
S'ip_addr'
p1642
V127.0.0.1
p1643
sS'wait_id'
p1644
S'49077180'
p1645
sS'score'
p1646
I0
sS'time'
p1647
F1408727709.889471
sS'user_id'
p1648
V13252
p1649
sS'tank_id'
p1650
I0
sa(dp1651
S'user_id'
p1652
V13252
p1653
sS'wait_id'
p1654
S'45187354'
p1655
sS'score'
p1656
I0
sS'time'
p1657
F1408727710.975503
sS'ip_addr'
p1658
V127.0.0.1
p1659
sS'tank_id'
p1660
I0
sa(dp1661
S'ip_addr'
p1662
V127.0.0.1
p1663
sS'wait_id'
p1664
S'5146746'
p1665
sS'score'
p1666
I0
sS'time'
p1667
F1408727712.053082
sS'user_id'
p1668
V13252
p1669
sS'tank_id'
p1670
I0
sa(dp1671
S'user_id'
p1672
V13252
p1673
sS'wait_id'
p1674
S'92276111'
p1675
sS'score'
p1676
I0
sS'time'
p1677
F1408727713.136477
sS'ip_addr'
p1678
V127.0.0.1
p1679
sS'tank_id'
p1680
I0
sa(dp1681
S'ip_addr'
p1682
V127.0.0.1
p1683
sS'wait_id'
p1684
S'7323323'
p1685
sS'score'
p1686
I0
sS'time'
p1687
F1408727714.208654
sS'user_id'
p1688
V13252
p1689
sS'tank_id'
p1690
I0
sa(dp1691
S'user_id'
p1692
V13252
p1693
sS'wait_id'
p1694
S'85208623'
p1695
sS'score'
p1696
I0
sS'time'
p1697
F1408727715.271962
sS'ip_addr'
p1698
V127.0.0.1
p1699
sS'tank_id'
p1700
I0
sa(dp1701
S'ip_addr'
p1702
V127.0.0.1
p1703
sS'wait_id'
p1704
S'57071080'
p1705
sS'score'
p1706
I0
sS'time'
p1707
F1408727783.668496
sS'user_id'
p1708
V13252
p1709
sS'tank_id'
p1710
I0
sa(dp1711
S'user_id'
p1712
V13252
p1713
sS'wait_id'
p1714
S'83474840'
p1715
sS'score'
p1716
I0
sS'time'
p1717
F1408727784.754004
sS'ip_addr'
p1718
V127.0.0.1
p1719
sS'tank_id'
p1720
I0
sa(dp1721
S'ip_addr'
p1722
V127.0.0.1
p1723
sS'wait_id'
p1724
S'2919862'
p1725
sS'score'
p1726
I0
sS'time'
p1727
F1408727785.824586
sS'user_id'
p1728
V13252
p1729
sS'tank_id'
p1730
I0
sa(dp1731
S'user_id'
p1732
V13252
p1733
sS'wait_id'
p1734
S'47940880'
p1735
sS'score'
p1736
I0
sS'time'
p1737
F1408727786.894806
sS'ip_addr'
p1738
V127.0.0.1
p1739
sS'tank_id'
p1740
I0
sa(dp1741
S'ip_addr'
p1742
V127.0.0.1
p1743
sS'wait_id'
p1744
S'47407128'
p1745
sS'score'
p1746
I0
sS'time'
p1747
F1408727787.977405
sS'user_id'
p1748
V13252
p1749
sS'tank_id'
p1750
I0
sa(dp1751
S'user_id'
p1752
V13252
p1753
sS'wait_id'
p1754
S'59711967'
p1755
sS'score'
p1756
I0
sS'time'
p1757
F1408727789.042527
sS'ip_addr'
p1758
V127.0.0.1
p1759
sS'tank_id'
p1760
I0
sa(dp1761
S'ip_addr'
p1762
V127.0.0.1
p1763
sS'wait_id'
p1764
S'21875024'
p1765
sS'score'
p1766
I0
sS'time'
p1767
F1408880601.469052
sS'user_id'
p1768
V70029
p1769
sS'tank_id'
p1770
I0
sa(dp1771
S'user_id'
p1772
V98416
p1773
sS'wait_id'
p1774
S'99040458'
p1775
sS'score'
p1776
I0
sS'time'
p1777
F1408880630.272695
sS'ip_addr'
p1778
V127.0.0.1
p1779
sS'tank_id'
p1780
I0
saaS'._._._._._._._._._._.\n| | ._._. | ._._._. |\n| |_. | |_._|_. . | |\n| ._| ._._._._._|_| |\n| | ._| ._. | . | . |\n| | | | | | | |_._| |\n| ._._| | ._|_._. | |\n|_. | ._| | . | ._| |\n| | |_| | | |_._| | |\n| ._| ._._| | ._. | |\n|_._|_._._._|_._|_._|\n'
p1781
aas.