(dp0
S'battlelist'
p1
(dp2
V60964106
p3
(lp4
S'._._._._._._._._._._.\n| . . ._.   |     . |\n|_| |       | ._._| |\n| ._| ._.   ._|   | |\n| ._._._._._| . ._| |\n| . | ._._._._| . | |\n| | | |   .     | . |\n| | | |   |   ._. | |\n| | | |   |   ._|   |\n| ._| |_. |_._._._. |\n|_._._._._._._._._._|'
p5
a(lp6
(dp7
S'score'
p8
I2160
sS'ipaddr'
p9
V127.0.0.1
p10
sS'port'
p11
I5001
sS'session_id'
p12
I81011399
sS'tank_id'
p13
I2
sa(dp14
S'score'
p15
I0
sS'ipaddr'
p16
V127.0.0.1
p17
sS'port'
p18
I5002
sS'session_id'
p19
I44515653
sS'tank_id'
p20
I1
saasV77130408
p21
(lp22
S'._._._._._._._._._._.\n| . . |_. . |_._. . |\n|_| | | ._| | ._._| |\n| ._|_._| | ._|_. | |\n| |_._._._._| ._._| |\n| . | ._._._._| ._._|\n| | | | | ._. | | . |\n| | | | ._| . |_._| |\n|_| | | | | |_._| ._|\n| ._| |_. |_._._._| |\n|_._._|_._._._._._._|'
p23
a(lp24
(dp25
S'ipaddr'
p26
V127.0.0.1
p27
sS'port'
p28
I5001
sS'session_id'
p29
I94824940
sS'tank_id'
p30
I1
sa(dp31
S'ipaddr'
p32
V127.0.0.1
p33
sS'port'
p34
I5002
sS'session_id'
p35
I98789964
sS'tank_id'
p36
I2
saasV82736157
p37
(lp38
S'._._._._._._._._._._.\n|                   |\n| ._. ._.   ._. ._. |\n| | | | |   | | | | |\n|                   |\n|                   |\n| ._._._._._._._._. |\n|     |       |     |\n|     |   .   |     |\n|         |         |\n|_._._._._|_._._._._|'
p39
a(lp40
(dp41
S'ipaddr'
p42
V192.168.1.33
p43
sS'port'
p44
I8800
sS'session_id'
p45
I85390495
sS'tank_id'
p46
I1
sa(dp47
S'score'
p48
I0
sS'ipaddr'
p49
V192.168.1.32
p50
sS'port'
p51
I8800
sS'session_id'
p52
I10774951
sS'tank_id'
p53
I0
saasV5531308
p54
(lp55
S'._._._._._._._._._._.\n|   |_. ._._. ._|   |\n|_.   |_.   ._|   ._|\n| |_.   |   |   ._| |\n| . |   ._._.   | . |\n| |               | |\n| | .   ._._.   . | |\n| ._|   .   .   |_. |\n|_|   ._|   |_.   |_|\n|   ._| ._._. |_.   |\n|_._|_._._._._._|_._|'
p56
a(lp57
(dp58
S'score'
p59
I405
sS'ipaddr'
p60
V127.0.0.1
p61
sS'port'
p62
I5001
sS'session_id'
p63
I39947621
sS'tank_id'
p64
I2
sa(dp65
S'score'
p66
I0
sS'ipaddr'
p67
V127.0.0.1
p68
sS'port'
p69
I5002
sS'session_id'
p70
I99936179
sS'tank_id'
p71
I2
saasV97055325
p72
(lp73
S'._._._._._._._._._._.\n| ._. ._. | ._. ._. |\n| | ._. | | |     | |\n|   |_. |_.         |\n| |_._.   | |_. ._| |\n|_._. |_._|_._. ._._|\n| ._._._._|         |\n| | . ._. |         |\n| | | | | .         |\n|_._|_. | |         |\n|_._._._._|_._._._._|'
p74
a(lp75
(dp76
S'ipaddr'
p77
V127.0.0.1
p78
sS'port'
p79
I5001
sS'session_id'
p80
I4262063
sS'tank_id'
p81
I2
sa(dp82
S'ipaddr'
p83
V127.0.0.1
p84
sS'port'
p85
I5002
sS'session_id'
p86
I8042971
sS'tank_id'
p87
I2
saasV50062223
p88
(lp89
S'._._._._._._._._._._.\n|   |  _._  |  _._  |\n|   |       |       |\n|   |       |       | \n|   |_.   ._|_.   ._|\n|   |   .   |   .   |\n|_.   ._|_.   ._|   |\n|       |       |   |\n|       |       |   |\n|  _._  |  _._  |   |\n|_._._._|_._._._|_._|'
p90
a(lp91
(dp92
S'ipaddr'
p93
V127.0.0.1
p94
sS'port'
p95
I5001
sS'session_id'
p96
I54058160
sS'tank_id'
p97
I1
sa(dp98
S'ipaddr'
p99
V127.0.0.1
p100
sS'port'
p101
I5002
sS'session_id'
p102
I76286631
sS'tank_id'
p103
I2
saasV15230856
p104
(lp105
S'._._._._._._._._._._.\n|   |_. ._._. ._|   |\n|_.   |_.   ._|   ._|\n| |_.   |   |   ._| |\n| . |   ._._.   | . |\n| |               | |\n| | .   ._._.   . | |\n| ._|   .   .   |_. |\n|_|   ._|   |_.   |_|\n|   ._| ._._. |_.   |\n|_._|_._._._._._|_._|'
p106
a(lp107
(dp108
S'score'
p109
I360
sS'ipaddr'
p110
V192.168.1.38
p111
sS'port'
p112
I8800
sS'session_id'
p113
I2198289
sS'tank_id'
p114
I2
sa(dp115
S'score'
p116
I1680
sS'ipaddr'
p117
V192.168.1.37
p118
sS'port'
p119
I8800
sS'session_id'
p120
I84964643
sS'tank_id'
p121
I2
sa(dp122
S'score'
p123
I520
sS'ipaddr'
p124
V192.168.1.35
p125
sS'port'
p126
I8800
sS'session_id'
p127
I3137348
sS'tank_id'
p128
I1
saasV99622432
p129
(lp130
S'._._._._._._._._._._.\n|   | | | | | | |   |\n|_.               ._|\n|_.     ._._.     ._|\n|_.   .   |   .   ._|\n|_.   |_.   ._|   ._|\n|_.   |   .   |   ._|\n|_.     ._|_.     ._|\n|_.               ._|\n|   . . . . . . .   |\n|_._|_|_|_|_|_|_|_._|'
p131
a(lp132
(dp133
S'score'
p134
I600
sS'ipaddr'
p135
V192.168.1.38
p136
sS'port'
p137
I8800
sS'session_id'
p138
I22470338
sS'tank_id'
p139
I2
sa(dp140
S'score'
p141
I40
sS'ipaddr'
p142
V192.168.1.39
p143
sS'port'
p144
I8800
sS'session_id'
p145
I6824186
sS'tank_id'
p146
I2
sa(dp147
S'score'
p148
I420
sS'ipaddr'
p149
V192.168.1.37
p150
sS'port'
p151
I8800
sS'session_id'
p152
I5431656
sS'tank_id'
p153
I0
saasV29776982
p154
(lp155
S'._._._._._._._._._._.\n| ._. ._. | ._. ._. |\n| | ._. | | |     | |\n|   |_. |_.         |\n| |_._.   | |_. ._| |\n|_._. |_._|_._. ._._|\n| ._._._._|         |\n| | . ._. |         |\n| | | | | .         |\n|_._|_. | |         |\n|_._._._._|_._._._._|'
p156
a(lp157
(dp158
S'score'
p159
I405
sS'ipaddr'
p160
V127.0.0.1
p161
sS'port'
p162
I5001
sS'session_id'
p163
I73448016
sS'tank_id'
p164
I2
sa(dp165
S'score'
p166
I0
sS'ipaddr'
p167
V127.0.0.1
p168
sS'port'
p169
I5002
sS'session_id'
p170
I12591314
sS'tank_id'
p171
I2
saasV53639772
p172
(lp173
S'._._._._._._._._._._.\n|   |_. ._._. ._|   |\n|_.   |_.   ._|   ._|\n| |_.   |   |   ._| |\n| . |   ._._.   | . |\n| |               | |\n| | .   ._._.   . | |\n| ._|   .   .   |_. |\n|_|   ._|   |_.   |_|\n|   ._| ._._. |_.   |\n|_._|_._._._._._|_._|'
p174
a(lp175
(dp176
S'ipaddr'
p177
V127.0.0.1
p178
sS'port'
p179
I5001
sS'session_id'
p180
I9754767
sS'tank_id'
p181
I1
sa(dp182
S'ipaddr'
p183
V127.0.0.1
p184
sS'port'
p185
I5002
sS'session_id'
p186
I85151636
sS'tank_id'
p187
I2
saasV19661661
p188
(lp189
S'._._._._._._._._._._.\n| ._. ._. | ._. ._. |\n| | ._. | | |     | |\n|   |_. |_.         |\n| |_._.   | |_. ._| |\n|_._. |_._|_._. ._._|\n| ._._._._|         |\n| | . ._. |         |\n| | | | | .         |\n|_._|_. | |         |\n|_._._._._|_._._._._|'
p190
a(lp191
(dp192
S'ipaddr'
p193
V192.168.1.37
p194
sS'port'
p195
I8800
sS'session_id'
p196
I8498182
sS'tank_id'
p197
I2
sa(dp198
S'score'
p199
I0
sS'ipaddr'
p200
V192.168.1.39
p201
sS'port'
p202
I8800
sS'session_id'
p203
I6217084
sS'tank_id'
p204
I5
saasV85782472
p205
(lp206
S'._._._._._._._._._._.\n| . . ._.   |     . |\n|_| |       | ._._| |\n| ._| ._.   ._|   | |\n| ._._._._._| . ._| |\n| . | ._._._._| . | |\n| | | |   .     | . |\n| | | |   |   ._. | |\n| | | |   |   ._|   |\n| ._| |_. |_._._._. |\n|_._._._._._._._._._|'
p207
a(lp208
(dp209
S'ipaddr'
p210
V127.0.0.1
p211
sS'port'
p212
I5001
sS'session_id'
p213
I67141914
sS'tank_id'
p214
I1
sa(dp215
S'ipaddr'
p216
V127.0.0.1
p217
sS'port'
p218
I5002
sS'session_id'
p219
I8858985
sS'tank_id'
p220
I2
saasV22005419
p221
(lp222
S'._._._._._._._._._._.\n|                   |\n| ._. ._.   ._. ._. |\n| | | | |   | | | | |\n|                   |\n|                   |\n| ._._._._._._._._. |\n|     |       |     |\n|     |   .   |     |\n|         |         |\n|_._._._._|_._._._._|'
p223
a(lp224
(dp225
S'ipaddr'
p226
V127.0.0.1
p227
sS'port'
p228
I5001
sS'session_id'
p229
I1797670
sS'tank_id'
p230
I2
sa(dp231
S'ipaddr'
p232
V127.0.0.1
p233
sS'port'
p234
I5002
sS'session_id'
p235
I324452
sS'tank_id'
p236
I1
saasV50689081
p237
(lp238
S'._._._._._._._._._._.\n|   | | | | | | |   |\n|_.               ._|\n|_.     ._._.     ._|\n|_.   .   |   .   ._|\n|_.   |_.   ._|   ._|\n|_.   |   .   |   ._|\n|_.     ._|_.     ._|\n|_.               ._|\n|   . . . . . . .   |\n|_._|_|_|_|_|_|_|_._|'
p239
a(lp240
(dp241
S'ipaddr'
p242
V127.0.0.1
p243
sS'port'
p244
I5002
sS'session_id'
p245
I82226699
sS'tank_id'
p246
I1
sa(dp247
S'ipaddr'
p248
V127.0.0.1
p249
sS'port'
p250
I5001
sS'session_id'
p251
I69775721
sS'tank_id'
p252
I2
saasV78414489
p253
(lp254
S'._._._._._._._._._._.\n|   | | | | | | |   |\n|_.               ._|\n|_.     ._._.     ._|\n|_.   .   |   .   ._|\n|_.   |_.   ._|   ._|\n|_.   |   .   |   ._|\n|_.     ._|_.     ._|\n|_.               ._|\n|   . . . . . . .   |\n|_._|_|_|_|_|_|_|_._|'
p255
a(lp256
(dp257
S'score'
p258
I640
sS'ipaddr'
p259
V192.168.1.35
p260
sS'port'
p261
I8800
sS'session_id'
p262
I18815630
sS'tank_id'
p263
I1
sa(dp264
S'score'
p265
I800
sS'ipaddr'
p266
V192.168.1.36
p267
sS'port'
p268
I8800
sS'session_id'
p269
I4064984
sS'tank_id'
p270
I1
saasV90631454
p271
(lp272
S'._._._._._._._._._._.\n| . . ._. . ._._. . |\n| | | | . |   ._. | |\n| ._|_._| | ._|   | |\n| ._._._._.   ._._| |\n| . | . ._._._| ._._|\n| | | | | ._. | |   |\n| . . . . ._|   |_. |\n| | | | | | ._._| . |\n| ._| |_. |_._._._| |\n|_._._._._._._._._._|'
p273
a(lp274
(dp275
S'score'
p276
I0
sS'ipaddr'
p277
V192.168.1.39
p278
sS'port'
p279
I8800
sS'session_id'
p280
I71984770
sS'tank_id'
p281
I4
sa(dp282
S'ipaddr'
p283
V192.168.1.38
p284
sS'port'
p285
I8800
sS'session_id'
p286
I65874702
sS'tank_id'
p287
I2
saasV86666341
p288
(lp289
S'._._._._._._._._._._.\n| . . . .   . . . . |\n| | | | |   | | | | |\n| | | | |   | | | | |\n| ._._._.   ._._._. |\n|_._. .       . ._._|\n|   | | .   . | |   |\n|   | | |   | | |   |\n|   | | |_._| | |   |\n|   | |       | |   |\n|_._._|_._._._|_._._|'
p290
a(lp291
(dp292
S'ipaddr'
p293
V127.0.0.1
p294
sS'port'
p295
I5001
sS'session_id'
p296
I94058509
sS'tank_id'
p297
I2
sa(dp298
S'ipaddr'
p299
V127.0.0.1
p300
sS'port'
p301
I5002
sS'session_id'
p302
I23793609
sS'tank_id'
p303
I2
saasV82424310
p304
(lp305
S'._._._._._._._._._._.\n|                   |\n| ._. ._.   ._. ._. |\n| | | | |   | | | | |\n|                   |\n|                   |\n| ._._._._._._._._. |\n|     |       |     |\n|     |   .   |     |\n|         |         |\n|_._._._._|_._._._._|'
p306
a(lp307
(dp308
S'score'
p309
I795
sS'ipaddr'
p310
V127.0.0.1
p311
sS'port'
p312
I5001
sS'session_id'
p313
I93800852
sS'tank_id'
p314
I2
sa(dp315
S'score'
p316
I0
sS'ipaddr'
p317
V127.0.0.1
p318
sS'port'
p319
I5002
sS'session_id'
p320
I91027602
sS'tank_id'
p321
I2
sa(dp322
S'score'
p323
I0
sS'ipaddr'
p324
V127.0.0.1
p325
sS'port'
p326
I5003
sS'session_id'
p327
I53331488
sS'tank_id'
p328
I2
saasV11261563
p329
(lp330
S'._._._._._._._._._._.\n|   .   .   .   |   |\n| ._|_. |_._|_._._. |\n|   |   |   .   |   |\n|_._| ._._._|_._| ._|\n|   |   |   |   .   |\n| ._._._. ._. ._|_._|\n|   |   |   |   .   |\n|_._| ._|_. |_._| ._|\n|   .   |   |   |   |\n|_._|_._._._|_._._._|'
p331
a(lp332
(dp333
S'ipaddr'
p334
V127.0.0.1
p335
sS'port'
p336
I5001
sS'session_id'
p337
I33928787
sS'tank_id'
p338
I1
sa(dp339
S'ipaddr'
p340
V127.0.0.1
p341
sS'port'
p342
I5002
sS'session_id'
p343
I88380664
sS'tank_id'
p344
I2
saasV96972749
p345
(lp346
S'._._._._._._._._._._.\n|   .   .   .   |   |\n| ._|_. |_._|_._._. |\n|   |   |   .   |   |\n|_._| ._._._|_._| ._|\n|   |   |   |   .   |\n| ._._._. ._. ._|_._|\n|   |   |   |   .   |\n|_._| ._|_. |_._| ._|\n|   .   |   |   |   |\n|_._|_._._._|_._._._|'
p347
a(lp348
(dp349
S'ipaddr'
p350
V127.0.0.1
p351
sS'port'
p352
I5001
sS'session_id'
p353
I46845500
sS'tank_id'
p354
I1
sa(dp355
S'ipaddr'
p356
V127.0.0.1
p357
sS'port'
p358
I5002
sS'session_id'
p359
I12888940
sS'tank_id'
p360
I2
saasV25370403
p361
(lp362
S'._._._._._._._._._._.\n|_. ._. ._. ._. ._. |\n| ._._._. ._._._. ._|\n|_. ._._._. ._._._. |\n| ._. ._. ._. ._. ._|\n|_.   ._._._._.   ._|\n|_. ._._.   ._._. ._|\n| ._._._.   ._._._. |\n|_.   ._._._._.   ._|\n|   ._._.   ._._.   |\n|_._._._._._._._._._|'
p363
a(lp364
(dp365
S'score'
p366
I390
sS'ipaddr'
p367
V127.0.0.1
p368
sS'port'
p369
I5001
sS'session_id'
p370
I40046274
sS'tank_id'
p371
I2
sa(dp372
S'score'
p373
I0
sS'ipaddr'
p374
V127.0.0.1
p375
sS'port'
p376
I5002
sS'session_id'
p377
I76705847
sS'tank_id'
p378
I2
saasV69240683
p379
(lp380
S'._._._._._._._._._._.\n| . . . .   . . . . |\n| | | | |   | | | | |\n| | | | |   | | | | |\n| ._._._.   ._._._. |\n|_._. .       . ._._|\n|   | | .   . | |   |\n|   | | |   | | |   |\n|   | | |_._| | |   |\n|   | |       | |   |\n|_._._|_._._._|_._._|'
p381
a(lp382
(dp383
S'ipaddr'
p384
V127.0.0.1
p385
sS'port'
p386
I5001
sS'session_id'
p387
I33777994
sS'tank_id'
p388
I1
sa(dp389
S'ipaddr'
p390
V127.0.0.1
p391
sS'port'
p392
I5002
sS'session_id'
p393
I71501540
sS'tank_id'
p394
I2
saasV87563894
p395
(lp396
S'._._._._._._._._._._.\n|                   |\n| ._. ._.   ._. ._. |\n| | | | |   | | | | |\n|                   |\n|                   |\n| ._._._._._._._._. |\n|     |       |     |\n|     |   .   |     |\n|         |         |\n|_._._._._|_._._._._|'
p397
a(lp398
(dp399
S'ipaddr'
p400
V127.0.0.1
p401
sS'port'
p402
I5001
sS'session_id'
p403
I65833565
sS'tank_id'
p404
I1
sa(dp405
S'ipaddr'
p406
V127.0.0.1
p407
sS'port'
p408
I5002
sS'session_id'
p409
I8614405
sS'tank_id'
p410
I2
saasV55920752
p411
(lp412
S'._._._._._._._._._._.\n| . . . .   . . . . |\n| | | | |   | | | | |\n| | | | |   | | | | |\n| ._._._.   ._._._. |\n|_._. .       . ._._|\n|   | | .   . | |   |\n|   | | |   | | |   |\n|   | | |_._| | |   |\n|   | |       | |   |\n|_._._|_._._._|_._._|'
p413
a(lp414
(dp415
S'ipaddr'
p416
V127.0.0.1
p417
sS'port'
p418
I5001
sS'session_id'
p419
I85204608
sS'tank_id'
p420
I1
sa(dp421
S'ipaddr'
p422
V127.0.0.1
p423
sS'port'
p424
I5002
sS'session_id'
p425
I75613608
sS'tank_id'
p426
I2
saasV73098229
p427
(lp428
S'._._._._._._._._._._.\n| ._._._.   ._._._. |\n| | ._.       ._. | |\n| | |_.       ._| | |\n| |_._._.   ._._._| |\n|                   |\n| ._._._.   ._._._. |\n| |     |   |     | |\n| |   ._|   |_.   | |\n| |_._._.   ._._._| |\n|_._._._._._._._._._|'
p429
a(lp430
(dp431
S'ipaddr'
p432
V127.0.0.1
p433
sS'port'
p434
I5001
sS'session_id'
p435
I15400224
sS'tank_id'
p436
I1
sa(dp437
S'ipaddr'
p438
V127.0.0.1
p439
sS'port'
p440
I5002
sS'session_id'
p441
I60965504
sS'tank_id'
p442
I2
saasV0
p443
(lp444
S'._._._._._._._._._._.\n|   ._._.   ._._.   |\n|     |     |_. |   |\n|     |     |   |   |\n|     |     |   |   |\n|                   |\n|   ._. .   . ._.   |\n|   | | |   |_|     |\n|   | | |   |_.     |\n|   | |_|   | |_.   |\n|_._._._._._._._._._|'
p445
a(lp446
(dp447
S'ipaddr'
p448
V127.0.0.1
p449
sS'port'
p450
I5001
sS'session_id'
p451
I93330440
sS'tank_id'
p452
I1
sa(dp453
S'ipaddr'
p454
V127.0.0.1
p455
sS'port'
p456
I5002
sS'session_id'
p457
I67671269
sS'tank_id'
p458
I2
saasV32023437
p459
(lp460
S'._._._._._._._._._._.\n| . . . .   . . . . |\n| | | | |   | | | | |\n| | | | |   | | | | |\n| ._._._.   ._._._. |\n|_._. .       . ._._|\n|   | | .   . | |   |\n|   | | |   | | |   |\n|   | | |_._| | |   |\n|   | |       | |   |\n|_._._|_._._._|_._._|'
p461
a(lp462
(dp463
S'score'
p464
I0
sS'ipaddr'
p465
V192.168.1.35
p466
sS'port'
p467
I8800
sS'session_id'
p468
I6034831
sS'tank_id'
p469
I0
sa(dp470
S'score'
p471
I600
sS'ipaddr'
p472
V192.168.1.37
p473
sS'port'
p474
I8800
sS'session_id'
p475
I26930678
sS'tank_id'
p476
I2
saasV65185713
p477
(lp478
S'._._._._._._._._._._.\n|   |  _._  |  _._  |\n|   |       |       |\n|   |       |       | \n|   |_.   ._|_.   ._|\n|   |   .   |   .   |\n|_.   ._|_.   ._|   |\n|       |       |   |\n|       |       |   |\n|  _._  |  _._  |   |\n|_._._._|_._._._|_._|'
p479
a(lp480
(dp481
S'score'
p482
I15
sS'ipaddr'
p483
V192.168.1.35
p484
sS'port'
p485
I8800
sS'session_id'
p486
I59435748
sS'tank_id'
p487
I2
sa(dp488
S'score'
p489
I150
sS'ipaddr'
p490
V192.168.1.37
p491
sS'port'
p492
I8800
sS'session_id'
p493
I14655554
sS'tank_id'
p494
I1
sa(dp495
S'score'
p496
I735
sS'ipaddr'
p497
V192.168.1.39
p498
sS'port'
p499
I8800
sS'session_id'
p500
I97444502
sS'tank_id'
p501
I2
sa(dp502
S'score'
p503
I465
sS'ipaddr'
p504
V192.168.1.38
p505
sS'port'
p506
I8800
sS'session_id'
p507
I96077470
sS'tank_id'
p508
I2
saasV33793773
p509
(lp510
S'._._._._._._._._._._.\n|_. ._. ._. ._. ._. |\n| ._._._. ._._._. ._|\n|_. ._._._. ._._._. |\n| ._. ._. ._. ._. ._|\n|_.   ._._._._.   ._|\n|_. ._._.   ._._. ._|\n| ._._._.   ._._._. |\n|_.   ._._._._.   ._|\n|   ._._.   ._._.   |\n|_._._._._._._._._._|'
p511
a(lp512
(dp513
S'score'
p514
I315
sS'ipaddr'
p515
V192.168.1.39
p516
sS'port'
p517
I8800
sS'session_id'
p518
I47348660
sS'tank_id'
p519
I0
sa(dp520
S'score'
p521
I150
sS'ipaddr'
p522
V192.168.1.37
p523
sS'port'
p524
I8800
sS'session_id'
p525
I66001266
sS'tank_id'
p526
I2
sa(dp527
S'score'
p528
I405
sS'ipaddr'
p529
V192.168.1.35
p530
sS'port'
p531
I8800
sS'session_id'
p532
I23225986
sS'tank_id'
p533
I1
sa(dp534
S'score'
p535
I390
sS'ipaddr'
p536
V192.168.1.38
p537
sS'port'
p538
I8800
sS'session_id'
p539
I11704469
sS'tank_id'
p540
I2
saasV6238398
p541
(lp542
S'._._._._._._._._._._.\n| . . ._.   |     . |\n|_| |       | ._._| |\n| ._| ._.   ._|   | |\n| ._._._._._| . ._| |\n| . | ._._._._| . | |\n| | | |   .     | . |\n| | | |   |   ._. | |\n| | | |   |   ._|   |\n| ._| |_. |_._._._. |\n|_._._._._._._._._._|'
p543
a(lp544
(dp545
S'score'
p546
I390
sS'ipaddr'
p547
V127.0.0.1
p548
sS'port'
p549
I5001
sS'session_id'
p550
I66990764
sS'tank_id'
p551
I2
sa(dp552
S'score'
p553
I0
sS'ipaddr'
p554
V127.0.0.1
p555
sS'port'
p556
I5002
sS'session_id'
p557
I62979420
sS'tank_id'
p558
I2
saasV98397503
p559
(lp560
S'._._._._._._._._._._.\n|_. ._. ._. ._. ._. |\n| ._._._. ._._._. ._|\n|_. ._._._. ._._._. |\n| ._. ._. ._. ._. ._|\n|_.   ._._._._.   ._|\n|_. ._._.   ._._. ._|\n| ._._._.   ._._._. |\n|_.   ._._._._.   ._|\n|   ._._.   ._._.   |\n|_._._._._._._._._._|'
p561
a(lp562
(dp563
S'score'
p564
I880
sS'ipaddr'
p565
V192.168.1.35
p566
sS'port'
p567
I8800
sS'session_id'
p568
I13340332
sS'tank_id'
p569
I0
sa(dp570
S'score'
p571
I100
sS'ipaddr'
p572
V192.168.1.36
p573
sS'port'
p574
I8800
sS'session_id'
p575
I57185375
sS'tank_id'
p576
I0
sa(dp577
S'score'
p578
I600
sS'ipaddr'
p579
V192.168.1.38
p580
sS'port'
p581
I8800
sS'session_id'
p582
I85328391
sS'tank_id'
p583
I2
sa(dp584
S'score'
p585
I300
sS'ipaddr'
p586
V192.168.1.37
p587
sS'port'
p588
I8800
sS'session_id'
p589
I75201
sS'tank_id'
p590
I1
sa(dp591
S'score'
p592
I220
sS'ipaddr'
p593
V192.168.1.39
p594
sS'port'
p595
I8800
sS'session_id'
p596
I42807553
sS'tank_id'
p597
I0
saasV82750447
p598
(lp599
S'._._._._._._._._._._.\n| . . |_. . |_._. . |\n|_| | | ._. | ._._. |\n| ._|_._| | ._|_. | |\n| |_._._._._| ._._| |\n| . . . ._._._| ._._|\n| | | | | ._. | | . |\n| | | | ._| . |_._| |\n| | | | | | |_._| . |\n| ._| |_. |_._._._| |\n|_._._._._._._._._._|'
p600
a(lp601
(dp602
S'ipaddr'
p603
V127.0.0.1
p604
sS'port'
p605
I5001
sS'session_id'
p606
I27833762
sS'tank_id'
p607
I2
sa(dp608
S'ipaddr'
p609
V127.0.0.1
p610
sS'port'
p611
I5002
sS'session_id'
p612
I37985192
sS'tank_id'
p613
I2
saasV7592675
p614
(lp615
S'._._._._._._._._._._.\n|                   |\n| ._. ._.   ._. ._. |\n| | | | |   | | | | |\n|                   |\n|                   |\n| ._._._._._._._._. |\n|     |       |     |\n|     |   .   |     |\n|         |         |\n|_._._._._|_._._._._|'
p616
a(lp617
(dp618
S'score'
p619
I60
sS'ipaddr'
p620
V192.168.1.37
p621
sS'port'
p622
I8800
sS'session_id'
p623
I47036629
sS'tank_id'
p624
I1
sa(dp625
S'score'
p626
I810
sS'ipaddr'
p627
V192.168.1.38
p628
sS'port'
p629
I8800
sS'session_id'
p630
I91289873
sS'tank_id'
p631
I2
saasV47603384
p632
(lp633
S'._._._._._._._._._._.\n| ._._._.   ._._._. |\n| | ._.       ._. | |\n| | |_.       ._| | |\n| |_._._.   ._._._| |\n|                   |\n| ._._._.   ._._._. |\n| |     |   |     | |\n| |   ._|   |_.   | |\n| |_._._.   ._._._| |\n|_._._._._._._._._._|'
p634
a(lp635
(dp636
S'score'
p637
I240
sS'ipaddr'
p638
V192.168.1.35
p639
sS'port'
p640
I8800
sS'session_id'
p641
I87802782
sS'tank_id'
p642
I1
sa(dp643
S'score'
p644
I405
sS'ipaddr'
p645
V192.168.1.37
p646
sS'port'
p647
I8800
sS'session_id'
p648
I16307068
sS'tank_id'
p649
I0
sa(dp650
S'score'
p651
I195
sS'ipaddr'
p652
V192.168.1.36
p653
sS'port'
p654
I8800
sS'session_id'
p655
I25593381
sS'tank_id'
p656
I2
sa(dp657
S'score'
p658
I780
sS'ipaddr'
p659
V192.168.1.38
p660
sS'port'
p661
I8800
sS'session_id'
p662
I47569597
sS'tank_id'
p663
I2
saasV45658709
p664
(lp665
S'._._._._._._._._._._.\n|   | | | | | | |   |\n|_.               ._|\n|_.     ._._.     ._|\n|_.   .   |   .   ._|\n|_.   |_.   ._|   ._|\n|_.   |   .   |   ._|\n|_.     ._|_.     ._|\n|_.               ._|\n|   . . . . . . .   |\n|_._|_|_|_|_|_|_|_._|'
p666
a(lp667
(dp668
S'score'
p669
I0
sS'ipaddr'
p670
V127.0.0.1
p671
sS'port'
p672
I5001
sS'session_id'
p673
I48093282
sS'tank_id'
p674
I2
sa(dp675
S'score'
p676
I405
sS'ipaddr'
p677
V127.0.0.1
p678
sS'port'
p679
I5002
sS'session_id'
p680
I63590130
sS'tank_id'
p681
I2
saasV35570442
p682
(lp683
S'._._._._._._._._._._.\n| . . ._. . ._._. . |\n| | | | . |   ._. | |\n| ._|_._| | ._|   | |\n| ._._._._.   ._._| |\n| . | . ._._._| ._._|\n| | | | | ._. | |   |\n| . . . . ._|   |_. |\n| | | | | | ._._| . |\n| ._| |_. |_._._._| |\n|_._._._._._._._._._|'
p684
a(lp685
(dp686
S'ipaddr'
p687
V127.0.0.1
p688
sS'port'
p689
I5001
sS'session_id'
p690
I91556053
sS'tank_id'
p691
I2
sa(dp692
S'ipaddr'
p693
V127.0.0.1
p694
sS'port'
p695
I5002
sS'session_id'
p696
I7579156
sS'tank_id'
p697
I1
saasV95631069
p698
(lp699
S'._._._._._._._._._._.\n|                   |\n|   ._._._._._._.   |\n|   |           |   |\n|   |   . ._.       |\n|   |   |   |   .   |\n|       |_. |   |   |\n|   .           |   |\n|   |_._._._._._|   |\n|                   |\n|_._._._._._._._._._|'
p700
a(lp701
(dp702
S'score'
p703
I405
sS'ipaddr'
p704
V192.168.1.39
p705
sS'port'
p706
I8800
sS'session_id'
p707
I99124067
sS'tank_id'
p708
I2
sa(dp709
S'score'
p710
I0
sS'ipaddr'
p711
V192.168.1.38
p712
sS'port'
p713
I8800
sS'session_id'
p714
I90374887
sS'tank_id'
p715
I2
saasV38580883
p716
(lp717
S'._._._._._._._._._._.\n| . . ._. . ._._. . |\n| | | | . |   ._. | |\n| ._|_._| | ._|   | |\n| ._._._._.   ._._| |\n| . | . ._._._| ._._|\n| | | | | ._. | |   |\n| . . . . ._|   |_. |\n| | | | | | ._._| . |\n| ._| |_. |_._._._| |\n|_._._._._._._._._._|'
p718
a(lp719
(dp720
S'score'
p721
I0
sS'ipaddr'
p722
V127.0.0.1
p723
sS'port'
p724
I5001
sS'session_id'
p725
I56293810
sS'tank_id'
p726
I2
sa(dp727
S'score'
p728
I405
sS'ipaddr'
p729
V127.0.0.1
p730
sS'port'
p731
I5002
sS'session_id'
p732
I69109421
sS'tank_id'
p733
I2
saasV46143105
p734
(lp735
S'._._._._._._._._._._.\n| .       |       . |\n| |_._.   |   ._._| |\n| | ._.   |   ._. | |\n| | | ._.   ._. | | |\n| |   |       |   | |\n| | ._. ._._. ._. | |\n| | |   | . |   | | |\n| |_._.   |   ._._| |\n| |       |       | |\n|_._._._._|_._._._._|'
p736
a(lp737
(dp738
S'score'
p739
I0
sS'ipaddr'
p740
V127.0.0.1
p741
sS'port'
p742
I5001
sS'session_id'
p743
I97706734
sS'tank_id'
p744
I1
sa(dp745
S'score'
p746
I675
sS'ipaddr'
p747
V127.0.0.1
p748
sS'port'
p749
I5002
sS'session_id'
p750
I30204
sS'tank_id'
p751
I2
saasV28140790
p752
(lp753
S'._._._._._._._._._._.\n|       |   . ._._. |\n|_.   ._|_._| | . | |\n| . . . |   . | | | |\n| | | | ._._|_._|_. |\n| |_._| .   | .   . |\n|_.   ._|_._. |_._| |\n| . . . . . | |   | |\n| | |_|_| | |_. . ._|\n| |_. | ._| | ._|_. |\n|_._._._._._._._._._|'
p754
a(lp755
(dp756
S'score'
p757
I405
sS'ipaddr'
p758
V127.0.0.1
p759
sS'port'
p760
I5001
sS'session_id'
p761
I17965044
sS'tank_id'
p762
I2
sa(dp763
S'score'
p764
I0
sS'ipaddr'
p765
V127.0.0.1
p766
sS'port'
p767
I5002
sS'session_id'
p768
I66963111
sS'tank_id'
p769
I2
saasV61270901
p770
(lp771
S'._._._._._._._._._._.\n|       |   . ._._. |\n|_.   ._|_._| | . | |\n| . . . |   . | | | |\n| | | | ._._|_._|_. |\n| |_._| .   | .   . |\n|_.   ._|_._. |_._| |\n| . . . . . | |   | |\n| | |_|_| | |_. . ._|\n| |_. | ._| | ._|_. |\n|_._._._._._._._._._|'
p772
a(lp773
(dp774
S'ipaddr'
p775
V127.0.0.1
p776
sS'port'
p777
I5001
sS'session_id'
p778
I605586
sS'tank_id'
p779
I0
sa(dp780
S'ipaddr'
p781
V127.0.0.1
p782
sS'port'
p783
I5002
sS'session_id'
p784
I50565511
sS'tank_id'
p785
I2
saasV26659579
p786
(lp787
S'._._._._._._._._._._.\n| .       |       . |\n| |_._.   |   ._._| |\n| | ._.   |   ._. | |\n| | | ._.   ._. | | |\n| |   |       |   | |\n| | ._. ._._. ._. | |\n| | |   | . |   | | |\n| |_._.   |   ._._| |\n| |       |       | |\n|_._._._._|_._._._._|'
p788
a(lp789
(dp790
S'score'
p791
I1800
sS'ipaddr'
p792
V192.168.1.36
p793
sS'port'
p794
I8800
sS'session_id'
p795
I30383928
sS'tank_id'
p796
I5
sa(dp797
S'score'
p798
I0
sS'ipaddr'
p799
V192.168.1.37
p800
sS'port'
p801
I8800
sS'session_id'
p802
I13881047
sS'tank_id'
p803
I1
sa(dp804
S'score'
p805
I400
sS'ipaddr'
p806
V192.168.1.38
p807
sS'port'
p808
I8800
sS'session_id'
p809
I77827191
sS'tank_id'
p810
I2
sa(dp811
S'score'
p812
I560
sS'ipaddr'
p813
V192.168.1.35
p814
sS'port'
p815
I8800
sS'session_id'
p816
I91808598
sS'tank_id'
p817
I1
saasV15636537
p818
(lp819
S'._._._._._._._._._._.\n|   | | | | | | |   |\n|_.               ._|\n|_.     ._._.     ._|\n|_.   .   |   .   ._|\n|_.   |_.   ._|   ._|\n|_.   |   .   |   ._|\n|_.     ._|_.     ._|\n|_.               ._|\n|   . . . . . . .   |\n|_._|_|_|_|_|_|_|_._|'
p820
a(lp821
(dp822
S'ipaddr'
p823
V127.0.0.1
p824
sS'port'
p825
I5001
sS'session_id'
p826
I90978336
sS'tank_id'
p827
I2
sa(dp828
S'ipaddr'
p829
V127.0.0.1
p830
sS'port'
p831
I5002
sS'session_id'
p832
I45015218
sS'tank_id'
p833
I2
saasV67934554
p834
(lp835
S'._._._._._._._._._._.\n| . . . .   . . . . |\n| | | | |   | | | | |\n| | | | |   | | | | |\n| ._._._.   ._._._. |\n|_._. .       . ._._|\n|   | | .   . | |   |\n|   | | |   | | |   |\n|   | | |_._| | |   |\n|   | |       | |   |\n|_._._|_._._._|_._._|'
p836
a(lp837
(dp838
S'score'
p839
I1200
sS'ipaddr'
p840
V192.168.1.37
p841
sS'port'
p842
I8800
sS'session_id'
p843
I7708858
sS'tank_id'
p844
I1
sa(dp845
S'score'
p846
I520
sS'ipaddr'
p847
V192.168.1.36
p848
sS'port'
p849
I8800
sS'session_id'
p850
I67261973
sS'tank_id'
p851
I0
sa(dp852
S'score'
p853
I560
sS'ipaddr'
p854
V192.168.1.35
p855
sS'port'
p856
I8800
sS'session_id'
p857
I81185637
sS'tank_id'
p858
I1
saasV35793348
p859
(lp860
S'._._._._._._._._._._.\n| . . ._.   |     . |\n|_| |       | ._._| |\n| ._| ._.   ._|   | |\n| ._._._._._| . ._| |\n| . | ._._._._| . | |\n| | | |   .     | . |\n| | | |   |   ._. | |\n| | | |   |   ._|   |\n| ._| |_. |_._._._. |\n|_._._._._._._._._._|'
p861
a(lp862
(dp863
S'score'
p864
I270
sS'ipaddr'
p865
V192.168.1.38
p866
sS'port'
p867
I8800
sS'session_id'
p868
I18207439
sS'tank_id'
p869
I1
sa(dp870
S'score'
p871
I210
sS'ipaddr'
p872
V192.168.1.35
p873
sS'port'
p874
I8800
sS'session_id'
p875
I61628879
sS'tank_id'
p876
I1
sa(dp877
S'score'
p878
I495
sS'ipaddr'
p879
V192.168.1.37
p880
sS'port'
p881
I8800
sS'session_id'
p882
I53508116
sS'tank_id'
p883
I0
sa(dp884
S'score'
p885
I225
sS'ipaddr'
p886
V192.168.1.39
p887
sS'port'
p888
I8800
sS'session_id'
p889
I1571634
sS'tank_id'
p890
I1
sa(dp891
S'score'
p892
I210
sS'ipaddr'
p893
V192.168.1.36
p894
sS'port'
p895
I8800
sS'session_id'
p896
I71693866
sS'tank_id'
p897
I2
saasV24736174
p898
(lp899
S'._._._._._._._._._._.\n|   |_. ._._. ._|   |\n|_.   |_.   ._|   ._|\n| |_.   |   |   ._| |\n| . |   ._._.   | . |\n| |               | |\n| | .   ._._.   . | |\n| ._|   .   .   |_. |\n|_|   ._|   |_.   |_|\n|   ._| ._._. |_.   |\n|_._|_._._._._._|_._|'
p900
a(lp901
(dp902
S'ipaddr'
p903
V127.0.0.1
p904
sS'port'
p905
I5001
sS'session_id'
p906
I3670904
sS'tank_id'
p907
I2
sa(dp908
S'ipaddr'
p909
V127.0.0.1
p910
sS'port'
p911
I5002
sS'session_id'
p912
I84737357
sS'tank_id'
p913
I2
saasV26422610
p914
(lp915
S'._._._._._._._._._._.\n| . . |_. . |_._. . |\n|_| | | ._. | ._._. |\n| ._|_._| | ._|_. | |\n| |_._._._._| ._._| |\n| . . . ._._._| ._._|\n| | | | | ._. | | . |\n| | | | ._| . |_._| |\n| | | | | | |_._| . |\n| ._| |_. |_._._._| |\n|_._._._._._._._._._|'
p916
a(lp917
(dp918
S'ipaddr'
p919
V127.0.0.1
p920
sS'port'
p921
I5003
sS'session_id'
p922
I38029097
sS'tank_id'
p923
I1
sa(dp924
S'score'
p925
I0
sS'ipaddr'
p926
V127.0.0.1
p927
sS'port'
p928
I5002
sS'session_id'
p929
I7033203
sS'tank_id'
p930
I2
sa(dp931
S'score'
p932
I340
sS'ipaddr'
p933
V127.0.0.1
p934
sS'port'
p935
I5001
sS'session_id'
p936
I17130118
sS'tank_id'
p937
I0
saasV47311189
p938
(lp939
S'._._._._._._._._._._.\n|                   |\n| ._. ._.   ._. ._. |\n| | | | |   | | | | |\n|                   |\n|                   |\n| ._._._._._._._._. |\n|     |       |     |\n|     |   .   |     |\n|         |         |\n|_._._._._|_._._._._|'
p940
a(lp941
(dp942
S'score'
p943
I405
sS'ipaddr'
p944
V127.0.0.1
p945
sS'port'
p946
I5001
sS'session_id'
p947
I61953829
sS'tank_id'
p948
I2
sa(dp949
S'score'
p950
I0
sS'ipaddr'
p951
V127.0.0.1
p952
sS'port'
p953
I5002
sS'session_id'
p954
I73545427
sS'tank_id'
p955
I2
saasV85635162
p956
(lp957
S'._._._._._._._._._._.\n|                   |\n|   ._._._._._._.   |\n|   |           |   |\n|   |   . ._.       |\n|   |   |   |   .   |\n|       |_. |   |   |\n|   .           |   |\n|   |_._._._._._|   |\n|                   |\n|_._._._._._._._._._|'
p958
a(lp959
(dp960
S'ipaddr'
p961
V127.0.0.1
p962
sS'port'
p963
I5001
sS'session_id'
p964
I71377182
sS'tank_id'
p965
I1
sa(dp966
S'ipaddr'
p967
V127.0.0.1
p968
sS'port'
p969
I5002
sS'session_id'
p970
I47304751
sS'tank_id'
p971
I2
saasV12501439
p972
(lp973
S'._._._._._._._._._._.\n|                   |\n|   ._._._._._._.   |\n|   |           |   |\n|   |   . ._.       |\n|   |   |   |   .   |\n|       |_. |   |   |\n|   .           |   |\n|   |_._._._._._|   |\n|                   |\n|_._._._._._._._._._|'
p974
a(lp975
(dp976
S'score'
p977
I945
sS'ipaddr'
p978
V192.168.1.35
p979
sS'port'
p980
I8800
sS'session_id'
p981
I46050296
sS'tank_id'
p982
I5
sa(dp983
S'score'
p984
I210
sS'ipaddr'
p985
V192.168.1.39
p986
sS'port'
p987
I8800
sS'session_id'
p988
I30915962
sS'tank_id'
p989
I1
sa(dp990
S'score'
p991
I360
sS'ipaddr'
p992
V192.168.1.32
p993
sS'port'
p994
I8800
sS'session_id'
p995
I95051813
sS'tank_id'
p996
I0
sa(dp997
S'score'
p998
I375
sS'ipaddr'
p999
V192.168.1.37
p1000
sS'port'
p1001
I8800
sS'session_id'
p1002
I53975722
sS'tank_id'
p1003
I0
sa(dp1004
S'score'
p1005
I675
sS'ipaddr'
p1006
V192.168.1.38
p1007
sS'port'
p1008
I8800
sS'session_id'
p1009
I53979679
sS'tank_id'
p1010
I2
sa(dp1011
S'score'
p1012
I345
sS'ipaddr'
p1013
V192.168.1.36
p1014
sS'port'
p1015
I8800
sS'session_id'
p1016
I40495711
sS'tank_id'
p1017
I2
saasV34340400
p1018
(lp1019
S'._._._._._._._._._._.\n| . . . .   . . . . |\n| | | | |   | | | | |\n| | | | |   | | | | |\n| ._._._.   ._._._. |\n|_._. .       . ._._|\n|   | | .   . | |   |\n|   | | |   | | |   |\n|   | | |_._| | |   |\n|   | |       | |   |\n|_._._|_._._._|_._._|'
p1020
a(lp1021
(dp1022
S'score'
p1023
I555
sS'ipaddr'
p1024
V192.168.1.39
p1025
sS'port'
p1026
I8800
sS'session_id'
p1027
I61293679
sS'tank_id'
p1028
I0
sa(dp1029
S'score'
p1030
I300
sS'ipaddr'
p1031
V192.168.1.32
p1032
sS'port'
p1033
I8800
sS'session_id'
p1034
I52541672
sS'tank_id'
p1035
I2
sa(dp1036
S'score'
p1037
I315
sS'ipaddr'
p1038
V192.168.1.38
p1039
sS'port'
p1040
I8800
sS'session_id'
p1041
I40010478
sS'tank_id'
p1042
I2
sa(dp1043
S'score'
p1044
I0
sS'ipaddr'
p1045
V192.168.1.33
p1046
sS'port'
p1047
I8800
sS'session_id'
p1048
I34564646
sS'tank_id'
p1049
I4
saasV412624
p1050
(lp1051
S'._._._._._._._._._._.\n| ._._._.   ._._._. |\n| | ._._.   ._._. | |\n| | | ._.   ._. | | |\n| | | |       | | | |\n|                   |\n| . . .       . . . |\n| | | |_.   ._| | | |\n| | |_._.   ._._| | |\n| |_._._.   ._._._| |\n|_._._._._._._._._._|'
p1052
a(lp1053
(dp1054
S'ipaddr'
p1055
V127.0.0.1
p1056
sS'port'
p1057
I5002
sS'session_id'
p1058
I23629842
sS'tank_id'
p1059
I0
sa(dp1060
S'ipaddr'
p1061
V127.0.0.1
p1062
sS'port'
p1063
I5001
sS'session_id'
p1064
I92053761
sS'tank_id'
p1065
I2
saasV10988216
p1066
(lp1067
S'._._._._._._._._._._.\n| ._._._.   ._._._. |\n| | ._.       ._. | |\n| | |_.       ._| | |\n| |_._._.   ._._._| |\n|                   |\n| ._._._.   ._._._. |\n| |     |   |     | |\n| |   ._|   |_.   | |\n| |_._._.   ._._._| |\n|_._._._._._._._._._|'
p1068
a(lp1069
(dp1070
S'score'
p1071
I150
sS'ipaddr'
p1072
V192.168.1.32
p1073
sS'port'
p1074
I8800
sS'session_id'
p1075
I53481003
sS'tank_id'
p1076
I1
sa(dp1077
S'score'
p1078
I195
sS'ipaddr'
p1079
V192.168.1.33
p1080
sS'port'
p1081
I8800
sS'session_id'
p1082
I16524100
sS'tank_id'
p1083
I2
saasV24430213
p1084
(lp1085
S'._._._._._._._._._._.\n|   |_. ._._. ._|   |\n|_.   |_.   ._|   ._|\n| |_.   |   |   ._| |\n| . |   ._._.   | . |\n| |               | |\n| | .   ._._.   . | |\n| ._|   .   .   |_. |\n|_|   ._|   |_.   |_|\n|   ._| ._._. |_.   |\n|_._|_._._._._._|_._|'
p1086
a(lp1087
(dp1088
S'ipaddr'
p1089
V127.0.0.1
p1090
sS'port'
p1091
I5001
sS'session_id'
p1092
I10813206
sS'tank_id'
p1093
I2
sa(dp1094
S'ipaddr'
p1095
V127.0.0.1
p1096
sS'port'
p1097
I5002
sS'session_id'
p1098
I52889949
sS'tank_id'
p1099
I2
saasV48935263
p1100
(lp1101
S'._._._._._._._._._._.\n| ._._._._.     ._. |\n| |   | |     . | | |\n| |_. ._.   ._|_|   |\n| |_. |     | |   . |\n| |     .   |   ._| |\n|     . |     ._| . |\n|   ._|_|   ._| . | |\n| . | |   ._| ._| | |\n| |_|   ._| ._._._| |\n|_._._._._._._._._._|'
p1102
a(lp1103
(dp1104
S'ipaddr'
p1105
V127.0.0.1
p1106
sS'port'
p1107
I5001
sS'session_id'
p1108
I50851269
sS'tank_id'
p1109
I1
sa(dp1110
S'ipaddr'
p1111
V127.0.0.1
p1112
sS'port'
p1113
I5002
sS'session_id'
p1114
I96260016
sS'tank_id'
p1115
I2
saasV29134333
p1116
(lp1117
S'._._._._._._._._._._.\n| .               . |\n| |   ._.   ._.   | |\n| |   |       |   | |\n| |               | |\n|_._._._. . ._._._._|\n| ._. | ._| | ._._. |\n|_. |_._. | | | . | |\n| ._| ._._|_._._| | |\n| | . | . | ._._._| |\n|_._|_._|_._._._._._|'
p1118
a(lp1119
(dp1120
S'score'
p1121
I640
sS'ipaddr'
p1122
V192.168.1.38
p1123
sS'port'
p1124
I8800
sS'session_id'
p1125
I13716778
sS'tank_id'
p1126
I2
sa(dp1127
S'score'
p1128
I1640
sS'ipaddr'
p1129
V192.168.1.37
p1130
sS'port'
p1131
I8800
sS'session_id'
p1132
I45033221
sS'tank_id'
p1133
I0
sa(dp1134
S'score'
p1135
I240
sS'ipaddr'
p1136
V192.168.1.36
p1137
sS'port'
p1138
I8800
sS'session_id'
p1139
I75033364
sS'tank_id'
p1140
I5
sa(dp1141
S'score'
p1142
I1280
sS'ipaddr'
p1143
V192.168.1.35
p1144
sS'port'
p1145
I8800
sS'session_id'
p1146
I71897140
sS'tank_id'
p1147
I1
saasV63951313
p1148
(lp1149
S'._._._._._._._._._._.\n|   .   .   .   |   |\n| ._|_. |_._|_._._. |\n|   |   |   .   |   |\n|_._| ._._._|_._| ._|\n|   |   |   |   .   |\n| ._._._. ._. ._|_._|\n|   |   |   |   .   |\n|_._| ._|_. |_._| ._|\n|   .   |   |   |   |\n|_._|_._._._|_._._._|'
p1150
a(lp1151
(dp1152
S'ipaddr'
p1153
V127.0.0.1
p1154
sS'port'
p1155
I5002
sS'session_id'
p1156
I60269954
sS'tank_id'
p1157
I1
sa(dp1158
S'ipaddr'
p1159
V127.0.0.1
p1160
sS'port'
p1161
I5001
sS'session_id'
p1162
I32434879
sS'tank_id'
p1163
I2
saasV42291226
p1164
(lp1165
S'._._._._._._._._._._.\n| ._. ._. | ._. ._. |\n| | ._. | | |     | |\n|   |_. |_.         |\n| |_._.   | |_. ._| |\n|_._. |_._|_._. ._._|\n| ._._._._|         |\n| | . ._. |         |\n| | | | | .         |\n|_._|_. | |         |\n|_._._._._|_._._._._|'
p1166
a(lp1167
(dp1168
S'score'
p1169
I405
sS'ipaddr'
p1170
V127.0.0.1
p1171
sS'port'
p1172
I5001
sS'session_id'
p1173
I19768221
sS'tank_id'
p1174
I2
sa(dp1175
S'score'
p1176
I0
sS'ipaddr'
p1177
V127.0.0.1
p1178
sS'port'
p1179
I5002
sS'session_id'
p1180
I20538359
sS'tank_id'
p1181
I2
saasV43166088
p1182
(lp1183
S'._._._._._._._._._._.\n|   | | | | | | |   |\n|_.               ._|\n|_.     ._._.     ._|\n|_.   .   |   .   ._|\n|_.   |_.   ._|   ._|\n|_.   |   .   |   ._|\n|_.     ._|_.     ._|\n|_.               ._|\n|   . . . . . . .   |\n|_._|_|_|_|_|_|_|_._|'
p1184
a(lp1185
(dp1186
S'ipaddr'
p1187
V127.0.0.1
p1188
sS'port'
p1189
I5003
sS'session_id'
p1190
I40185902
sS'tank_id'
p1191
I2
sa(dp1192
S'ipaddr'
p1193
V127.0.0.1
p1194
sS'port'
p1195
I5001
sS'session_id'
p1196
I27266485
sS'tank_id'
p1197
I2
sa(dp1198
S'ipaddr'
p1199
V127.0.0.1
p1200
sS'port'
p1201
I5002
sS'session_id'
p1202
I78860961
sS'tank_id'
p1203
I1
saasV49122379
p1204
(lp1205
S'._._._._._._._._._._.\n| . . |_. . |_._. . |\n|_| | | ._. | ._._. |\n| ._|_._| | ._|_. | |\n| |_._._._._| ._._| |\n| . . . ._._._| ._._|\n| | | | | ._. | | . |\n| | | | ._| . |_._| |\n| | | | | | |_._| . |\n| ._| |_. |_._._._| |\n|_._._._._._._._._._|'
p1206
a(lp1207
(dp1208
S'ipaddr'
p1209
V192.168.1.38
p1210
sS'port'
p1211
I8800
sS'session_id'
p1212
I67431923
sS'tank_id'
p1213
I2
sa(dp1214
S'score'
p1215
I0
sS'ipaddr'
p1216
V192.168.1.39
p1217
sS'port'
p1218
I8800
sS'session_id'
p1219
I28006564
sS'tank_id'
p1220
I2
saasV50534504
p1221
(lp1222
S'._._._._._._._._._._.\n| . | ._._._._. | . |\n| | ._._._._._._. | |\n| | ._._. . ._._. | |\n|_| |   . | .   | |_|\n| ._| ._| | |_. |_. |\n|_._._._. | ._._._._|\n|_. . |  ._.  | ._. |\n| ._| |  ._.  | | | |\n| | . |_.   ._|     |\n|_._|_._._._._._|_|_|'
p1223
a(lp1224
(dp1225
S'ipaddr'
p1226
V127.0.0.1
p1227
sS'port'
p1228
I5001
sS'session_id'
p1229
I21601180
sS'tank_id'
p1230
I1
sa(dp1231
S'ipaddr'
p1232
V127.0.0.1
p1233
sS'port'
p1234
I5002
sS'session_id'
p1235
I11958470
sS'tank_id'
p1236
I2
saasV33186503
p1237
(lp1238
S'._._._._._._._._._._.\n|   ._._.   ._._.   |\n|     |     |_. |   |\n|     |     |   |   |\n|     |     |   |   |\n|                   |\n|   ._. .   . ._.   |\n|   | | |   |_|     |\n|   | | |   |_.     |\n|   | |_|   | |_.   |\n|_._._._._._._._._._|'
p1239
a(lp1240
(dp1241
S'score'
p1242
I150
sS'ipaddr'
p1243
V192.168.1.32
p1244
sS'port'
p1245
I8800
sS'session_id'
p1246
I96963225
sS'tank_id'
p1247
I1
sa(dp1248
S'score'
p1249
I570
sS'ipaddr'
p1250
V192.168.1.33
p1251
sS'port'
p1252
I8800
sS'session_id'
p1253
I87338111
sS'tank_id'
p1254
I2
saassS'wait_for_start'
p1255
I01
sS'start_time'
p1256
F1412077449.156621
sS'battle_id'
p1257
I26422610
sS'waitlist'
p1258
g917
s.