(dp0
S'battlelist'
p1
(dp2
V32023437
p3
(lp4
S'._._._._._._._._._._.\n| . . . .   . . . . |\n| | | | |   | | | | |\n| | | | |   | | | | |\n| ._._._.   ._._._. |\n|_._. .       . ._._|\n|   | | .   . | |   |\n|   | | |   | | |   |\n|   | | |_._| | |   |\n|   | |       | |   |\n|_._._|_._._._|_._._|'
p5
a(lp6
(dp7
S'score'
p8
I0
sS'ipaddr'
p9
V192.168.1.35
p10
sS'port'
p11
I8800
sS'session_id'
p12
I6034831
sS'tank_id'
p13
I0
sa(dp14
S'score'
p15
I600
sS'ipaddr'
p16
V192.168.1.37
p17
sS'port'
p18
I8800
sS'session_id'
p19
I26930678
sS'tank_id'
p20
I2
saasV24736174
p21
(lp22
S'._._._._._._._._._._.\n|   |_. ._._. ._|   |\n|_.   |_.   ._|   ._|\n| |_.   |   |   ._| |\n| . |   ._._.   | . |\n| |               | |\n| | .   ._._.   . | |\n| ._|   .   .   |_. |\n|_|   ._|   |_.   |_|\n|   ._| ._._. |_.   |\n|_._|_._._._._._|_._|'
p23
a(lp24
(dp25
S'ipaddr'
p26
V127.0.0.1
p27
sS'port'
p28
I5001
sS'session_id'
p29
I3670904
sS'tank_id'
p30
I2
sa(dp31
S'ipaddr'
p32
V127.0.0.1
p33
sS'port'
p34
I5002
sS'session_id'
p35
I84737357
sS'tank_id'
p36
I2
saasV87510678
p37
(lp38
S'._._._._._._._._._._.\n| .               . |\n| |   ._.   ._.   | |\n| |   |       |   | |\n| |               | |\n|_._._._. . ._._._._|\n| ._. | ._| | ._._. |\n|_. |_._. | | | . | |\n| ._| ._._|_._._| | |\n| | . | . | ._._._| |\n|_._|_._|_._._._._._|'
p39
a(lp40
(dp41
S'score'
p42
I-1
sS'ipaddr'
p43
V127.0.0.1
p44
sS'port'
p45
I5001
sS'session_id'
p46
I56266093
sS'tank_id'
p47
I2
sa(dp48
S'score'
p49
I-1
sS'ipaddr'
p50
V127.0.0.1
p51
sS'port'
p52
I5002
sS'session_id'
p53
I89570859
sS'tank_id'
p54
I2
saasV50062223
p55
(lp56
S'._._._._._._._._._._.\n|   |  _._  |  _._  |\n|   |       |       |\n|   |       |       | \n|   |_.   ._|_.   ._|\n|   |   .   |   .   |\n|_.   ._|_.   ._|   |\n|       |       |   |\n|       |       |   |\n|  _._  |  _._  |   |\n|_._._._|_._._._|_._|'
p57
a(lp58
(dp59
S'ipaddr'
p60
V127.0.0.1
p61
sS'port'
p62
I5001
sS'session_id'
p63
I54058160
sS'tank_id'
p64
I1
sa(dp65
S'ipaddr'
p66
V127.0.0.1
p67
sS'port'
p68
I5002
sS'session_id'
p69
I76286631
sS'tank_id'
p70
I2
saasV92488566
p71
(lp72
S'._._._._._._._._._._.\n|   |  _._  |  _._  |\n|   |       |       |\n|   |       |       | \n|   |_.   ._|_.   ._|\n|   |   .   |   .   |\n|_.   ._|_.   ._|   |\n|       |       |   |\n|       |       |   |\n|  _._  |  _._  |   |\n|_._._._|_._._._|_._|'
p73
a(lp74
(dp75
S'score'
p76
I-1
sS'ipaddr'
p77
V127.0.0.1
p78
sS'port'
p79
I5001
sS'session_id'
p80
I95280424
sS'tank_id'
p81
I2
sa(dp82
S'score'
p83
I-1
sS'ipaddr'
p84
V127.0.0.1
p85
sS'port'
p86
I5002
sS'session_id'
p87
I87076176
sS'tank_id'
p88
I2
saasV47603384
p89
(lp90
S'._._._._._._._._._._.\n| ._._._.   ._._._. |\n| | ._.       ._. | |\n| | |_.       ._| | |\n| |_._._.   ._._._| |\n|                   |\n| ._._._.   ._._._. |\n| |     |   |     | |\n| |   ._|   |_.   | |\n| |_._._.   ._._._| |\n|_._._._._._._._._._|'
p91
a(lp92
(dp93
S'score'
p94
I240
sS'ipaddr'
p95
V192.168.1.35
p96
sS'port'
p97
I8800
sS'session_id'
p98
I87802782
sS'tank_id'
p99
I1
sa(dp100
S'score'
p101
I405
sS'ipaddr'
p102
V192.168.1.37
p103
sS'port'
p104
I8800
sS'session_id'
p105
I16307068
sS'tank_id'
p106
I0
sa(dp107
S'score'
p108
I195
sS'ipaddr'
p109
V192.168.1.36
p110
sS'port'
p111
I8800
sS'session_id'
p112
I25593381
sS'tank_id'
p113
I2
sa(dp114
S'score'
p115
I780
sS'ipaddr'
p116
V192.168.1.38
p117
sS'port'
p118
I8800
sS'session_id'
p119
I47569597
sS'tank_id'
p120
I2
saasV29776982
p121
(lp122
S'._._._._._._._._._._.\n| ._. ._. | ._. ._. |\n| | ._. | | |     | |\n|   |_. |_.         |\n| |_._.   | |_. ._| |\n|_._. |_._|_._. ._._|\n| ._._._._|         |\n| | . ._. |         |\n| | | | | .         |\n|_._|_. | |         |\n|_._._._._|_._._._._|'
p123
a(lp124
(dp125
S'score'
p126
I405
sS'ipaddr'
p127
V127.0.0.1
p128
sS'port'
p129
I5001
sS'session_id'
p130
I73448016
sS'tank_id'
p131
I2
sa(dp132
S'score'
p133
I0
sS'ipaddr'
p134
V127.0.0.1
p135
sS'port'
p136
I5002
sS'session_id'
p137
I12591314
sS'tank_id'
p138
I2
saasV49786905
p139
(lp140
S'._._._._._._._._._._.\n| . . . .   . . . . |\n| | | | |   | | | | |\n| | | | |   | | | | |\n| ._._._.   ._._._. |\n|_._. .       . ._._|\n|   | | .   . | |   |\n|   | | |   | | |   |\n|   | | |_._| | |   |\n|   | |       | |   |\n|_._._|_._._._|_._._|'
p141
a(lp142
(dp143
S'score'
p144
I0
sS'ipaddr'
p145
V127.0.0.1
p146
sS'port'
p147
I5001
sS'session_id'
p148
I17963521
sS'tank_id'
p149
I2
sa(dp150
S'score'
p151
I0
sS'ipaddr'
p152
V127.0.0.1
p153
sS'port'
p154
I5002
sS'session_id'
p155
I1357077
sS'tank_id'
p156
I2
saasV55920752
p157
(lp158
S'._._._._._._._._._._.\n| . . . .   . . . . |\n| | | | |   | | | | |\n| | | | |   | | | | |\n| ._._._.   ._._._. |\n|_._. .       . ._._|\n|   | | .   . | |   |\n|   | | |   | | |   |\n|   | | |_._| | |   |\n|   | |       | |   |\n|_._._|_._._._|_._._|'
p159
a(lp160
(dp161
S'ipaddr'
p162
V127.0.0.1
p163
sS'port'
p164
I5001
sS'session_id'
p165
I85204608
sS'tank_id'
p166
I1
sa(dp167
S'ipaddr'
p168
V127.0.0.1
p169
sS'port'
p170
I5002
sS'session_id'
p171
I75613608
sS'tank_id'
p172
I2
saasV85782472
p173
(lp174
S'._._._._._._._._._._.\n| . . ._.   |     . |\n|_| |       | ._._| |\n| ._| ._.   ._|   | |\n| ._._._._._| . ._| |\n| . | ._._._._| . | |\n| | | |   .     | . |\n| | | |   |   ._. | |\n| | | |   |   ._|   |\n| ._| |_. |_._._._. |\n|_._._._._._._._._._|'
p175
a(lp176
(dp177
S'ipaddr'
p178
V127.0.0.1
p179
sS'port'
p180
I5001
sS'session_id'
p181
I67141914
sS'tank_id'
p182
I1
sa(dp183
S'ipaddr'
p184
V127.0.0.1
p185
sS'port'
p186
I5002
sS'session_id'
p187
I8858985
sS'tank_id'
p188
I2
saasV12689503
p189
(lp190
S'._._._._._._._._._._.\n|                   |\n| ._. ._.   ._. ._. |\n| | | | |   | | | | |\n|                   |\n|                   |\n| ._._._._._._._._. |\n|     |       |     |\n|     |   .   |     |\n|         |         |\n|_._._._._|_._._._._|'
p191
a(lp192
(dp193
S'score'
p194
I0
sS'ipaddr'
p195
V127.0.0.1
p196
sS'port'
p197
I5001
sS'session_id'
p198
I97639801
sS'tank_id'
p199
I2
sa(dp200
S'score'
p201
I0
sS'ipaddr'
p202
V127.0.0.1
p203
sS'port'
p204
I5002
sS'session_id'
p205
I35560897
sS'tank_id'
p206
I2
sa(dp207
S'score'
p208
I0
sS'ipaddr'
p209
V127.0.0.1
p210
sS'port'
p211
I5003
sS'session_id'
p212
I24158285
sS'tank_id'
p213
I2
saasV50689081
p214
(lp215
S'._._._._._._._._._._.\n|   | | | | | | |   |\n|_.               ._|\n|_.     ._._.     ._|\n|_.   .   |   .   ._|\n|_.   |_.   ._|   ._|\n|_.   |   .   |   ._|\n|_.     ._|_.     ._|\n|_.               ._|\n|   . . . . . . .   |\n|_._|_|_|_|_|_|_|_._|'
p216
a(lp217
(dp218
S'ipaddr'
p219
V127.0.0.1
p220
sS'port'
p221
I5002
sS'session_id'
p222
I82226699
sS'tank_id'
p223
I1
sa(dp224
S'ipaddr'
p225
V127.0.0.1
p226
sS'port'
p227
I5001
sS'session_id'
p228
I69775721
sS'tank_id'
p229
I2
saasV78414489
p230
(lp231
S'._._._._._._._._._._.\n|   | | | | | | |   |\n|_.               ._|\n|_.     ._._.     ._|\n|_.   .   |   .   ._|\n|_.   |_.   ._|   ._|\n|_.   |   .   |   ._|\n|_.     ._|_.     ._|\n|_.               ._|\n|   . . . . . . .   |\n|_._|_|_|_|_|_|_|_._|'
p232
a(lp233
(dp234
S'score'
p235
I640
sS'ipaddr'
p236
V192.168.1.35
p237
sS'port'
p238
I8800
sS'session_id'
p239
I18815630
sS'tank_id'
p240
I1
sa(dp241
S'score'
p242
I800
sS'ipaddr'
p243
V192.168.1.36
p244
sS'port'
p245
I8800
sS'session_id'
p246
I4064984
sS'tank_id'
p247
I1
saasV5673186
p248
(lp249
S'._._._._._._._._._._.\n| .               . |\n| |   ._.   ._.   | |\n| |   |       |   | |\n| |               | |\n|_._._._. . ._._._._|\n| ._. | ._| | ._._. |\n|_. |_._. | | | . | |\n| ._| ._._|_._._| | |\n| | . | . | ._._._| |\n|_._|_._|_._._._._._|'
p250
a(lp251
(dp252
S'score'
p253
I405
sS'ipaddr'
p254
V127.0.0.1
p255
sS'port'
p256
I5001
sS'session_id'
p257
I11383804
sS'tank_id'
p258
I2
sa(dp259
S'score'
p260
I0
sS'ipaddr'
p261
V127.0.0.1
p262
sS'port'
p263
I5002
sS'session_id'
p264
I65531749
sS'tank_id'
p265
I2
saasV86666341
p266
(lp267
S'._._._._._._._._._._.\n| . . . .   . . . . |\n| | | | |   | | | | |\n| | | | |   | | | | |\n| ._._._.   ._._._. |\n|_._. .       . ._._|\n|   | | .   . | |   |\n|   | | |   | | |   |\n|   | | |_._| | |   |\n|   | |       | |   |\n|_._._|_._._._|_._._|'
p268
a(lp269
(dp270
S'ipaddr'
p271
V127.0.0.1
p272
sS'port'
p273
I5001
sS'session_id'
p274
I94058509
sS'tank_id'
p275
I2
sa(dp276
S'ipaddr'
p277
V127.0.0.1
p278
sS'port'
p279
I5002
sS'session_id'
p280
I23793609
sS'tank_id'
p281
I2
saasV82424310
p282
(lp283
S'._._._._._._._._._._.\n|                   |\n| ._. ._.   ._. ._. |\n| | | | |   | | | | |\n|                   |\n|                   |\n| ._._._._._._._._. |\n|     |       |     |\n|     |   .   |     |\n|         |         |\n|_._._._._|_._._._._|'
p284
a(lp285
(dp286
S'score'
p287
I795
sS'ipaddr'
p288
V127.0.0.1
p289
sS'port'
p290
I5001
sS'session_id'
p291
I93800852
sS'tank_id'
p292
I2
sa(dp293
S'score'
p294
I0
sS'ipaddr'
p295
V127.0.0.1
p296
sS'port'
p297
I5002
sS'session_id'
p298
I91027602
sS'tank_id'
p299
I2
sa(dp300
S'score'
p301
I0
sS'ipaddr'
p302
V127.0.0.1
p303
sS'port'
p304
I5003
sS'session_id'
p305
I53331488
sS'tank_id'
p306
I2
saasV64536401
p307
(lp308
S'._._._._._._._._._._.\n| . . ._.   |     . |\n|_| |       | ._._| |\n| ._| ._.   ._|   | |\n| ._._._._._| . ._| |\n| . | ._._._._| . | |\n| | | |   .     | . |\n| | | |   |   ._. | |\n| | | |   |   ._|   |\n| ._| |_. |_._._._. |\n|_._._._._._._._._._|'
p309
a(lp310
(dp311
S'score'
p312
I-1
sS'ipaddr'
p313
V127.0.0.1
p314
sS'port'
p315
I5001
sS'session_id'
p316
I672586
sS'tank_id'
p317
I2
sa(dp318
S'score'
p319
I-1
sS'ipaddr'
p320
V127.0.0.1
p321
sS'port'
p322
I5002
sS'session_id'
p323
I34086322
sS'tank_id'
p324
I2
saasV14139785
p325
(lp326
S'._._._._._._._._._._.\n| . . ._. . ._._. . |\n| | | | . |   ._. | |\n| ._|_._| | ._|   | |\n| ._._._._.   ._._| |\n| . | . ._._._| ._._|\n| | | | | ._. | |   |\n| . . . . ._|   |_. |\n| | | | | | ._._| . |\n| ._| |_. |_._._._| |\n|_._._._._._._._._._|'
p327
a(lp328
(dp329
S'score'
p330
I-1
sS'ipaddr'
p331
V127.0.0.1
p332
sS'port'
p333
I5001
sS'session_id'
p334
I95401409
sS'tank_id'
p335
I2
sa(dp336
S'score'
p337
I0
sS'ipaddr'
p338
V127.0.0.1
p339
sS'port'
p340
I5001
sS'session_id'
p341
I16041389
sS'tank_id'
p342
I2
saasV72398408
p343
(lp344
S'._._._._._._._._._._.\n| . . ._. . ._._. . |\n| | | | . |   ._. | |\n| ._|_._| | ._|   | |\n| ._._._._.   ._._| |\n| . | . ._._._| ._._|\n| | | | | ._. | |   |\n| . . . . ._|   |_. |\n| | | | | | ._._| . |\n| ._| |_. |_._._._| |\n|_._._._._._._._._._|'
p345
a(lp346
(dp347
S'score'
p348
I-1
sS'ipaddr'
p349
V127.0.0.1
p350
sS'port'
p351
I5001
sS'session_id'
p352
I21757794
sS'tank_id'
p353
I2
sa(dp354
S'score'
p355
I-1
sS'ipaddr'
p356
V127.0.0.1
p357
sS'port'
p358
I5002
sS'session_id'
p359
I85645269
sS'tank_id'
p360
I2
saasV58938529
p361
(lp362
S'._._._._._._._._._._.\n|   | | | | | | |   |\n|_.               ._|\n|_.     ._._.     ._|\n|_.   .   |   .   ._|\n|_.   |_.   ._|   ._|\n|_.   |   .   |   ._|\n|_.     ._|_.     ._|\n|_.               ._|\n|   . . . . . . .   |\n|_._|_|_|_|_|_|_|_._|'
p363
a(lp364
(dp365
S'score'
p366
I0
sS'ipaddr'
p367
V127.0.0.1
p368
sS'port'
p369
I5001
sS'session_id'
p370
I17839108
sS'tank_id'
p371
I2
sa(dp372
S'score'
p373
I405
sS'ipaddr'
p374
V127.0.0.1
p375
sS'port'
p376
I5002
sS'session_id'
p377
I72385133
sS'tank_id'
p378
I2
saasV0
p379
(lp380
S'._._._._._._._._._._.\n|   ._._.   ._._.   |\n|     |     |_. |   |\n|     |     |   |   |\n|     |     |   |   |\n|                   |\n|   ._. .   . ._.   |\n|   | | |   |_|     |\n|   | | |   |_.     |\n|   | |_|   | |_.   |\n|_._._._._._._._._._|'
p381
a(lp382
(dp383
S'ipaddr'
p384
V127.0.0.1
p385
sS'port'
p386
I5001
sS'session_id'
p387
I93330440
sS'tank_id'
p388
I1
sa(dp389
S'ipaddr'
p390
V127.0.0.1
p391
sS'port'
p392
I5002
sS'session_id'
p393
I67671269
sS'tank_id'
p394
I2
saasV91124622
p395
(lp396
S'._._._._._._._._._._.\n| ._._._.   ._._._. |\n| | ._.       ._. | |\n| | |_.       ._| | |\n| |_._._.   ._._._| |\n|                   |\n| ._._._.   ._._._. |\n| |     |   |     | |\n| |   ._|   |_.   | |\n| |_._._.   ._._._| |\n|_._._._._._._._._._|'
p397
a(lp398
(dp399
S'score'
p400
I-1
sS'ipaddr'
p401
V127.0.0.1
p402
sS'port'
p403
I5001
sS'session_id'
p404
I9658848
sS'tank_id'
p405
I2
sa(dp406
S'score'
p407
I-1
sS'ipaddr'
p408
V127.0.0.1
p409
sS'port'
p410
I5002
sS'session_id'
p411
I16330269
sS'tank_id'
p412
I2
saasV21408206
p413
(lp414
S'._._._._._._._._._._.\n| .       |       . |\n| |_._.   |   ._._| |\n| | ._.   |   ._. | |\n| | | ._.   ._. | | |\n| |   |       |   | |\n| | ._. ._._. ._. | |\n| | |   | . |   | | |\n| |_._.   |   ._._| |\n| |       |       | |\n|_._._._._|_._._._._|'
p415
a(lp416
(dp417
S'score'
p418
I-1
sS'ipaddr'
p419
V127.0.0.1
p420
sS'port'
p421
I5001
sS'session_id'
p422
I26247467
sS'tank_id'
p423
I2
sa(dp424
S'score'
p425
I-1
sS'ipaddr'
p426
V127.0.0.1
p427
sS'port'
p428
I5002
sS'session_id'
p429
I6898782
sS'tank_id'
p430
I2
saasV5558496
p431
(lp432
S'._._._._._._._._._._.\n|   ._._.   ._._.   |\n|     |     |_. |   |\n|     |     |   |   |\n|     |     |   |   |\n|                   |\n|   ._. .   . ._.   |\n|   | | |   |_|     |\n|   | | |   |_.     |\n|   | |_|   | |_.   |\n|_._._._._._._._._._|'
p433
a(lp434
(dp435
S'ipaddr'
p436
V127.0.0.1
p437
sS'port'
p438
I5001
sS'session_id'
p439
I17311140
sS'tank_id'
p440
I2
sa(dp441
S'ipaddr'
p442
V127.0.0.1
p443
sS'port'
p444
I5002
sS'session_id'
p445
I78170441
sS'tank_id'
p446
I2
saasV53639772
p447
(lp448
S'._._._._._._._._._._.\n|   |_. ._._. ._|   |\n|_.   |_.   ._|   ._|\n| |_.   |   |   ._| |\n| . |   ._._.   | . |\n| |               | |\n| | .   ._._.   . | |\n| ._|   .   .   |_. |\n|_|   ._|   |_.   |_|\n|   ._| ._._. |_.   |\n|_._|_._._._._._|_._|'
p449
a(lp450
(dp451
S'ipaddr'
p452
V127.0.0.1
p453
sS'port'
p454
I5001
sS'session_id'
p455
I9754767
sS'tank_id'
p456
I1
sa(dp457
S'ipaddr'
p458
V127.0.0.1
p459
sS'port'
p460
I5002
sS'session_id'
p461
I85151636
sS'tank_id'
p462
I2
saasV7592675
p463
(lp464
S'._._._._._._._._._._.\n|                   |\n| ._. ._.   ._. ._. |\n| | | | |   | | | | |\n|                   |\n|                   |\n| ._._._._._._._._. |\n|     |       |     |\n|     |   .   |     |\n|         |         |\n|_._._._._|_._._._._|'
p465
a(lp466
(dp467
S'score'
p468
I60
sS'ipaddr'
p469
V192.168.1.37
p470
sS'port'
p471
I8800
sS'session_id'
p472
I47036629
sS'tank_id'
p473
I1
sa(dp474
S'score'
p475
I810
sS'ipaddr'
p476
V192.168.1.38
p477
sS'port'
p478
I8800
sS'session_id'
p479
I91289873
sS'tank_id'
p480
I2
saasV99622432
p481
(lp482
S'._._._._._._._._._._.\n|   | | | | | | |   |\n|_.               ._|\n|_.     ._._.     ._|\n|_.   .   |   .   ._|\n|_.   |_.   ._|   ._|\n|_.   |   .   |   ._|\n|_.     ._|_.     ._|\n|_.               ._|\n|   . . . . . . .   |\n|_._|_|_|_|_|_|_|_._|'
p483
a(lp484
(dp485
S'score'
p486
I600
sS'ipaddr'
p487
V192.168.1.38
p488
sS'port'
p489
I8800
sS'session_id'
p490
I22470338
sS'tank_id'
p491
I2
sa(dp492
S'score'
p493
I40
sS'ipaddr'
p494
V192.168.1.39
p495
sS'port'
p496
I8800
sS'session_id'
p497
I6824186
sS'tank_id'
p498
I2
sa(dp499
S'score'
p500
I420
sS'ipaddr'
p501
V192.168.1.37
p502
sS'port'
p503
I8800
sS'session_id'
p504
I5431656
sS'tank_id'
p505
I0
saasV50534504
p506
(lp507
S'._._._._._._._._._._.\n| . | ._._._._. | . |\n| | ._._._._._._. | |\n| | ._._. . ._._. | |\n|_| |   . | .   | |_|\n| ._| ._| | |_. |_. |\n|_._._._. | ._._._._|\n|_. . |  ._.  | ._. |\n| ._| |  ._.  | | | |\n| | . |_.   ._|     |\n|_._|_._._._._._|_|_|'
p508
a(lp509
(dp510
S'ipaddr'
p511
V127.0.0.1
p512
sS'port'
p513
I5001
sS'session_id'
p514
I21601180
sS'tank_id'
p515
I1
sa(dp516
S'ipaddr'
p517
V127.0.0.1
p518
sS'port'
p519
I5002
sS'session_id'
p520
I11958470
sS'tank_id'
p521
I2
saasV46143105
p522
(lp523
S'._._._._._._._._._._.\n| .       |       . |\n| |_._.   |   ._._| |\n| | ._.   |   ._. | |\n| | | ._.   ._. | | |\n| |   |       |   | |\n| | ._. ._._. ._. | |\n| | |   | . |   | | |\n| |_._.   |   ._._| |\n| |       |       | |\n|_._._._._|_._._._._|'
p524
a(lp525
(dp526
S'score'
p527
I0
sS'ipaddr'
p528
V127.0.0.1
p529
sS'port'
p530
I5001
sS'session_id'
p531
I97706734
sS'tank_id'
p532
I1
sa(dp533
S'score'
p534
I675
sS'ipaddr'
p535
V127.0.0.1
p536
sS'port'
p537
I5002
sS'session_id'
p538
I30204
sS'tank_id'
p539
I2
saasV28420409
p540
(lp541
S'._._._._._._._._._._.\n| .       |       . |\n| |_._.   |   ._._| |\n| | ._.   |   ._. | |\n| | | ._.   ._. | | |\n| |   |       |   | |\n| | ._. ._._. ._. | |\n| | |   | . |   | | |\n| |_._.   |   ._._| |\n| |       |       | |\n|_._._._._|_._._._._|'
p542
a(lp543
(dp544
S'score'
p545
I0
sS'ipaddr'
p546
V127.0.0.1
p547
sS'port'
p548
I5001
sS'session_id'
p549
I66355533
sS'tank_id'
p550
I2
sa(dp551
S'score'
p552
I0
sS'ipaddr'
p553
V127.0.0.1
p554
sS'port'
p555
I5003
sS'session_id'
p556
I19607571
sS'tank_id'
p557
I2
saasV35793348
p558
(lp559
S'._._._._._._._._._._.\n| . . ._.   |     . |\n|_| |       | ._._| |\n| ._| ._.   ._|   | |\n| ._._._._._| . ._| |\n| . | ._._._._| . | |\n| | | |   .     | . |\n| | | |   |   ._. | |\n| | | |   |   ._|   |\n| ._| |_. |_._._._. |\n|_._._._._._._._._._|'
p560
a(lp561
(dp562
S'score'
p563
I270
sS'ipaddr'
p564
V192.168.1.38
p565
sS'port'
p566
I8800
sS'session_id'
p567
I18207439
sS'tank_id'
p568
I1
sa(dp569
S'score'
p570
I210
sS'ipaddr'
p571
V192.168.1.35
p572
sS'port'
p573
I8800
sS'session_id'
p574
I61628879
sS'tank_id'
p575
I1
sa(dp576
S'score'
p577
I495
sS'ipaddr'
p578
V192.168.1.37
p579
sS'port'
p580
I8800
sS'session_id'
p581
I53508116
sS'tank_id'
p582
I0
sa(dp583
S'score'
p584
I225
sS'ipaddr'
p585
V192.168.1.39
p586
sS'port'
p587
I8800
sS'session_id'
p588
I1571634
sS'tank_id'
p589
I1
sa(dp590
S'score'
p591
I210
sS'ipaddr'
p592
V192.168.1.36
p593
sS'port'
p594
I8800
sS'session_id'
p595
I71693866
sS'tank_id'
p596
I2
saasV5531308
p597
(lp598
S'._._._._._._._._._._.\n|   |_. ._._. ._|   |\n|_.   |_.   ._|   ._|\n| |_.   |   |   ._| |\n| . |   ._._.   | . |\n| |               | |\n| | .   ._._.   . | |\n| ._|   .   .   |_. |\n|_|   ._|   |_.   |_|\n|   ._| ._._. |_.   |\n|_._|_._._._._._|_._|'
p599
a(lp600
(dp601
S'score'
p602
I405
sS'ipaddr'
p603
V127.0.0.1
p604
sS'port'
p605
I5001
sS'session_id'
p606
I39947621
sS'tank_id'
p607
I2
sa(dp608
S'score'
p609
I0
sS'ipaddr'
p610
V127.0.0.1
p611
sS'port'
p612
I5002
sS'session_id'
p613
I99936179
sS'tank_id'
p614
I2
saasV71158593
p615
(lp616
S'._._._._._._._._._._.\n| ._._._.   ._._._. |\n| | ._._.   ._._. | |\n| | | ._.   ._. | | |\n| | | |       | | | |\n|                   |\n| . . .       . . . |\n| | | |_.   ._| | | |\n| | |_._.   ._._| | |\n| |_._._.   ._._._| |\n|_._._._._._._._._._|'
p617
a(lp618
(dp619
S'score'
p620
I-1
sS'ipaddr'
p621
V127.0.0.1
p622
sS'port'
p623
I5001
sS'session_id'
p624
I40034216
sS'tank_id'
p625
I2
sa(dp626
S'score'
p627
I-1
sS'ipaddr'
p628
V127.0.0.1
p629
sS'port'
p630
I5002
sS'session_id'
p631
I81365893
sS'tank_id'
p632
I2
saasV34340400
p633
(lp634
S'._._._._._._._._._._.\n| . . . .   . . . . |\n| | | | |   | | | | |\n| | | | |   | | | | |\n| ._._._.   ._._._. |\n|_._. .       . ._._|\n|   | | .   . | |   |\n|   | | |   | | |   |\n|   | | |_._| | |   |\n|   | |       | |   |\n|_._._|_._._._|_._._|'
p635
a(lp636
(dp637
S'score'
p638
I555
sS'ipaddr'
p639
V192.168.1.39
p640
sS'port'
p641
I8800
sS'session_id'
p642
I61293679
sS'tank_id'
p643
I0
sa(dp644
S'score'
p645
I300
sS'ipaddr'
p646
V192.168.1.32
p647
sS'port'
p648
I8800
sS'session_id'
p649
I52541672
sS'tank_id'
p650
I2
sa(dp651
S'score'
p652
I315
sS'ipaddr'
p653
V192.168.1.38
p654
sS'port'
p655
I8800
sS'session_id'
p656
I40010478
sS'tank_id'
p657
I2
sa(dp658
S'score'
p659
I0
sS'ipaddr'
p660
V192.168.1.33
p661
sS'port'
p662
I8800
sS'session_id'
p663
I34564646
sS'tank_id'
p664
I4
saasV17388421
p665
(lp666
S'._._._._._._._._._._.\n|_. ._. ._. ._. ._. |\n| ._._._. ._._._. ._|\n|_. ._._._. ._._._. |\n| ._. ._. ._. ._. ._|\n|_.   ._._._._.   ._|\n|_. ._._.   ._._. ._|\n| ._._._.   ._._._. |\n|_.   ._._._._.   ._|\n|   ._._.   ._._.   |\n|_._._._._._._._._._|'
p667
a(lp668
(dp669
S'score'
p670
I-1
sS'ipaddr'
p671
V127.0.0.1
p672
sS'port'
p673
I5001
sS'session_id'
p674
I70316476
sS'tank_id'
p675
I2
sa(dp676
S'score'
p677
I-1
sS'ipaddr'
p678
V127.0.0.1
p679
sS'port'
p680
I5002
sS'session_id'
p681
I26383150
sS'tank_id'
p682
I2
saasV47311189
p683
(lp684
S'._._._._._._._._._._.\n|                   |\n| ._. ._.   ._. ._. |\n| | | | |   | | | | |\n|                   |\n|                   |\n| ._._._._._._._._. |\n|     |       |     |\n|     |   .   |     |\n|         |         |\n|_._._._._|_._._._._|'
p685
a(lp686
(dp687
S'score'
p688
I405
sS'ipaddr'
p689
V127.0.0.1
p690
sS'port'
p691
I5001
sS'session_id'
p692
I61953829
sS'tank_id'
p693
I2
sa(dp694
S'score'
p695
I0
sS'ipaddr'
p696
V127.0.0.1
p697
sS'port'
p698
I5002
sS'session_id'
p699
I73545427
sS'tank_id'
p700
I2
saasV36174824
p701
(lp702
S'._._._._._._._._._._.\n|   ._._.   ._._.   |\n|     |     |_. |   |\n|     |     |   |   |\n|     |     |   |   |\n|                   |\n|   ._. .   . ._.   |\n|   | | |   |_|     |\n|   | | |   |_.     |\n|   | |_|   | |_.   |\n|_._._._._._._._._._|'
p703
a(lp704
(dp705
S'score'
p706
I75
sS'ipaddr'
p707
V127.0.0.1
p708
sS'port'
p709
I5002
sS'session_id'
p710
I59650072
sS'tank_id'
p711
I2
sa(dp712
S'score'
p713
I0
sS'ipaddr'
p714
V127.0.0.1
p715
sS'port'
p716
I5001
sS'session_id'
p717
I91423895
sS'tank_id'
p718
I2
saasV48935263
p719
(lp720
S'._._._._._._._._._._.\n| ._._._._.     ._. |\n| |   | |     . | | |\n| |_. ._.   ._|_|   |\n| |_. |     | |   . |\n| |     .   |   ._| |\n|     . |     ._| . |\n|   ._|_|   ._| . | |\n| . | |   ._| ._| | |\n| |_|   ._| ._._._| |\n|_._._._._._._._._._|'
p721
a(lp722
(dp723
S'ipaddr'
p724
V127.0.0.1
p725
sS'port'
p726
I5001
sS'session_id'
p727
I50851269
sS'tank_id'
p728
I1
sa(dp729
S'ipaddr'
p730
V127.0.0.1
p731
sS'port'
p732
I5002
sS'session_id'
p733
I96260016
sS'tank_id'
p734
I2
saasV97358117
p735
(lp736
S'._._._._._._._._._._.\n| . . . .   . . . . |\n| | | | |   | | | | |\n| | | | |   | | | | |\n| ._._._.   ._._._. |\n|_._. .       . ._._|\n|   | | .   . | |   |\n|   | | |   | | |   |\n|   | | |_._| | |   |\n|   | |       | |   |\n|_._._|_._._._|_._._|'
p737
a(lp738
(dp739
S'score'
p740
I-1
sS'ipaddr'
p741
V127.0.0.1
p742
sS'port'
p743
I5001
sS'session_id'
p744
I50480516
sS'tank_id'
p745
I2
sa(dp746
S'score'
p747
I-1
sS'ipaddr'
p748
V127.0.0.1
p749
sS'port'
p750
I5002
sS'session_id'
p751
I80249009
sS'tank_id'
p752
I2
saasV412624
p753
(lp754
S'._._._._._._._._._._.\n| ._._._.   ._._._. |\n| | ._._.   ._._. | |\n| | | ._.   ._. | | |\n| | | |       | | | |\n|                   |\n| . . .       . . . |\n| | | |_.   ._| | | |\n| | |_._.   ._._| | |\n| |_._._.   ._._._| |\n|_._._._._._._._._._|'
p755
a(lp756
(dp757
S'ipaddr'
p758
V127.0.0.1
p759
sS'port'
p760
I5002
sS'session_id'
p761
I23629842
sS'tank_id'
p762
I0
sa(dp763
S'ipaddr'
p764
V127.0.0.1
p765
sS'port'
p766
I5001
sS'session_id'
p767
I92053761
sS'tank_id'
p768
I2
saasV20373557
p769
(lp770
S'._._._._._._._._._._.\n|                   |\n| ._. ._.   ._. ._. |\n| | | | |   | | | | |\n|                   |\n|                   |\n| ._._._._._._._._. |\n|     |       |     |\n|     |   .   |     |\n|         |         |\n|_._._._._|_._._._._|'
p771
a(lp772
(dp773
S'score'
p774
I0
sS'ipaddr'
p775
V127.0.0.1
p776
sS'port'
p777
I5002
sS'session_id'
p778
I35893383
sS'tank_id'
p779
I2
sa(dp780
S'ipaddr'
p781
V127.0.0.1
p782
sS'port'
p783
I5001
sS'session_id'
p784
I96770587
sS'tank_id'
p785
I2
saasV12631471
p786
(lp787
S'._._._._._._._._._._.\n| ._._._.   ._._._. |\n| | ._._.   ._._. | |\n| | | ._.   ._. | | |\n| | | |       | | | |\n|                   |\n| . . .       . . . |\n| | | |_.   ._| | | |\n| | |_._.   ._._| | |\n| |_._._.   ._._._| |\n|_._._._._._._._._._|'
p788
a(lp789
(dp790
S'score'
p791
I-1
sS'ipaddr'
p792
V127.0.0.1
p793
sS'port'
p794
I5001
sS'session_id'
p795
I50749740
sS'tank_id'
p796
I2
sa(dp797
S'score'
p798
I-1
sS'ipaddr'
p799
V127.0.0.1
p800
sS'port'
p801
I5002
sS'session_id'
p802
I28358326
sS'tank_id'
p803
I2
saasV81490914
p804
(lp805
S'._._._._._._._._._._.\n|   |_. ._._. ._|   |\n|_.   |_.   ._|   ._|\n| |_.   |   |   ._| |\n| . |   ._._.   | . |\n| |               | |\n| | .   ._._.   . | |\n| ._|   .   .   |_. |\n|_|   ._|   |_.   |_|\n|   ._| ._._. |_.   |\n|_._|_._._._._._|_._|'
p806
a(lp807
(dp808
S'score'
p809
I0
sS'ipaddr'
p810
V127.0.0.1
p811
sS'port'
p812
I5001
sS'session_id'
p813
I83973326
sS'tank_id'
p814
I2
sa(dp815
S'score'
p816
I0
sS'ipaddr'
p817
V127.0.0.1
p818
sS'port'
p819
I5002
sS'session_id'
p820
I17957543
sS'tank_id'
p821
I2
saasV22005419
p822
(lp823
S'._._._._._._._._._._.\n|                   |\n| ._. ._.   ._. ._. |\n| | | | |   | | | | |\n|                   |\n|                   |\n| ._._._._._._._._. |\n|     |       |     |\n|     |   .   |     |\n|         |         |\n|_._._._._|_._._._._|'
p824
a(lp825
(dp826
S'ipaddr'
p827
V127.0.0.1
p828
sS'port'
p829
I5001
sS'session_id'
p830
I1797670
sS'tank_id'
p831
I2
sa(dp832
S'ipaddr'
p833
V127.0.0.1
p834
sS'port'
p835
I5002
sS'session_id'
p836
I324452
sS'tank_id'
p837
I1
saasV98397503
p838
(lp839
S'._._._._._._._._._._.\n|_. ._. ._. ._. ._. |\n| ._._._. ._._._. ._|\n|_. ._._._. ._._._. |\n| ._. ._. ._. ._. ._|\n|_.   ._._._._.   ._|\n|_. ._._.   ._._. ._|\n| ._._._.   ._._._. |\n|_.   ._._._._.   ._|\n|   ._._.   ._._.   |\n|_._._._._._._._._._|'
p840
a(lp841
(dp842
S'score'
p843
I880
sS'ipaddr'
p844
V192.168.1.35
p845
sS'port'
p846
I8800
sS'session_id'
p847
I13340332
sS'tank_id'
p848
I0
sa(dp849
S'score'
p850
I100
sS'ipaddr'
p851
V192.168.1.36
p852
sS'port'
p853
I8800
sS'session_id'
p854
I57185375
sS'tank_id'
p855
I0
sa(dp856
S'score'
p857
I600
sS'ipaddr'
p858
V192.168.1.38
p859
sS'port'
p860
I8800
sS'session_id'
p861
I85328391
sS'tank_id'
p862
I2
sa(dp863
S'score'
p864
I300
sS'ipaddr'
p865
V192.168.1.37
p866
sS'port'
p867
I8800
sS'session_id'
p868
I75201
sS'tank_id'
p869
I1
sa(dp870
S'score'
p871
I220
sS'ipaddr'
p872
V192.168.1.39
p873
sS'port'
p874
I8800
sS'session_id'
p875
I42807553
sS'tank_id'
p876
I0
saasV15230856
p877
(lp878
S'._._._._._._._._._._.\n|   |_. ._._. ._|   |\n|_.   |_.   ._|   ._|\n| |_.   |   |   ._| |\n| . |   ._._.   | . |\n| |               | |\n| | .   ._._.   . | |\n| ._|   .   .   |_. |\n|_|   ._|   |_.   |_|\n|   ._| ._._. |_.   |\n|_._|_._._._._._|_._|'
p879
a(lp880
(dp881
S'score'
p882
I360
sS'ipaddr'
p883
V192.168.1.38
p884
sS'port'
p885
I8800
sS'session_id'
p886
I2198289
sS'tank_id'
p887
I2
sa(dp888
S'score'
p889
I1680
sS'ipaddr'
p890
V192.168.1.37
p891
sS'port'
p892
I8800
sS'session_id'
p893
I84964643
sS'tank_id'
p894
I2
sa(dp895
S'score'
p896
I520
sS'ipaddr'
p897
V192.168.1.35
p898
sS'port'
p899
I8800
sS'session_id'
p900
I3137348
sS'tank_id'
p901
I1
saasV39335070
p902
(lp903
S'._._._._._._._._._._.\n| ._._._.   ._._._. |\n| | ._.       ._. | |\n| | |_.       ._| | |\n| |_._._.   ._._._| |\n|                   |\n| ._._._.   ._._._. |\n| |     |   |     | |\n| |   ._|   |_.   | |\n| |_._._.   ._._._| |\n|_._._._._._._._._._|'
p904
a(lp905
(dp906
S'score'
p907
I0
sS'ipaddr'
p908
V127.0.0.1
p909
sS'port'
p910
I5001
sS'session_id'
p911
I1407251
sS'tank_id'
p912
I2
sa(dp913
S'score'
p914
I0
sS'ipaddr'
p915
V127.0.0.1
p916
sS'port'
p917
I5002
sS'session_id'
p918
I19382499
sS'tank_id'
p919
I2
saasV16883320
p920
(lp921
S'._._._._._._._._._._.\n| .       |       . |\n| |_._.   |   ._._| |\n| | ._.   |   ._. | |\n| | | ._.   ._. | | |\n| |   |       |   | |\n| | ._. ._._. ._. | |\n| | |   | . |   | | |\n| |_._.   |   ._._| |\n| |       |       | |\n|_._._._._|_._._._._|'
p922
a(lp923
(dp924
S'score'
p925
I-1
sS'ipaddr'
p926
V127.0.0.1
p927
sS'port'
p928
I5001
sS'session_id'
p929
I31476740
sS'tank_id'
p930
I2
sa(dp931
S'score'
p932
I-1
sS'ipaddr'
p933
V127.0.0.1
p934
sS'port'
p935
I5002
sS'session_id'
p936
I69518209
sS'tank_id'
p937
I2
sa(dp938
S'score'
p939
I-1
sS'ipaddr'
p940
V127.0.0.1
p941
sS'port'
p942
I5003
sS'session_id'
p943
I33199156
sS'tank_id'
p944
I2
saasV61870983
p945
(lp946
S'._._._._._._._._._._.\n| .       |       . |\n| |_._.   |   ._._| |\n| | ._.   |   ._. | |\n| | | ._.   ._. | | |\n| |   |       |   | |\n| | ._. ._._. ._. | |\n| | |   | . |   | | |\n| |_._.   |   ._._| |\n| |       |       | |\n|_._._._._|_._._._._|'
p947
a(lp948
(dp949
S'score'
p950
I0
sS'ipaddr'
p951
V127.0.0.1
p952
sS'port'
p953
I5001
sS'session_id'
p954
I57439520
sS'tank_id'
p955
I2
sa(dp956
S'score'
p957
I0
sS'ipaddr'
p958
V127.0.0.1
p959
sS'port'
p960
I5002
sS'session_id'
p961
I8687201
sS'tank_id'
p962
I2
saasV13308540
p963
(lp964
S'._._._._._._._._._._.\n| .               . |\n| |   ._.   ._.   | |\n| |   |       |   | |\n| |               | |\n|_._._._. . ._._._._|\n| ._. | ._| | ._._. |\n|_. |_._. | | | . | |\n| ._| ._._|_._._| | |\n| | . | . | ._._._| |\n|_._|_._|_._._._._._|'
p965
a(lp966
(dp967
S'ipaddr'
p968
V127.0.0.1
p969
sS'port'
p970
I5001
sS'session_id'
p971
I88788191
sS'tank_id'
p972
I2
sa(dp973
S'ipaddr'
p974
V127.0.0.1
p975
sS'port'
p976
I5002
sS'session_id'
p977
I74432511
sS'tank_id'
p978
I2
saasV70894900
p979
(lp980
S'._._._._._._._._._._.\n|   |  _._  |  _._  |\n|   |       |       |\n|   |       |       | \n|   |_.   ._|_.   ._|\n|   |   .   |   .   |\n|_.   ._|_.   ._|   |\n|       |       |   |\n|       |       |   |\n|  _._  |  _._  |   |\n|_._._._|_._._._|_._|'
p981
a(lp982
(dp983
S'score'
p984
I-1
sS'ipaddr'
p985
V127.0.0.1
p986
sS'port'
p987
I5001
sS'session_id'
p988
I44623382
sS'tank_id'
p989
I2
sa(dp990
S'score'
p991
I-1
sS'ipaddr'
p992
V127.0.0.1
p993
sS'port'
p994
I5002
sS'session_id'
p995
I2360119
sS'tank_id'
p996
I2
saasV67429120
p997
(lp998
S'._._._._._._._._._._.\n| .       |       . |\n| |_._.   |   ._._| |\n| | ._.   |   ._. | |\n| | | ._.   ._. | | |\n| |   |       |   | |\n| | ._. ._._. ._. | |\n| | |   | . |   | | |\n| |_._.   |   ._._| |\n| |       |       | |\n|_._._._._|_._._._._|'
p999
a(lp1000
(dp1001
S'score'
p1002
I0
sS'ipaddr'
p1003
V127.0.0.1
p1004
sS'port'
p1005
I5001
sS'session_id'
p1006
I95433725
sS'tank_id'
p1007
I2
sa(dp1008
S'score'
p1009
I0
sS'ipaddr'
p1010
V127.0.0.1
p1011
sS'port'
p1012
I5002
sS'session_id'
p1013
I29045265
sS'tank_id'
p1014
I2
saasV68892519
p1015
(lp1016
S'._._._._._._._._._._.\n| . . ._. . ._._. . |\n| | | | . |   ._. | |\n| ._|_._| | ._|   | |\n| ._._._._.   ._._| |\n| . | . ._._._| ._._|\n| | | | | ._. | |   |\n| . . . . ._|   |_. |\n| | | | | | ._._| . |\n| ._| |_. |_._._._| |\n|_._._._._._._._._._|'
p1017
a(lp1018
(dp1019
S'score'
p1020
I0
sS'ipaddr'
p1021
V127.0.0.1
p1022
sS'port'
p1023
I5001
sS'session_id'
p1024
I5174704
sS'tank_id'
p1025
I2
sa(dp1026
S'score'
p1027
I0
sS'ipaddr'
p1028
V127.0.0.1
p1029
sS'port'
p1030
I5002
sS'session_id'
p1031
I48568385
sS'tank_id'
p1032
I2
saasV95406754
p1033
(lp1034
S'._._._._._._._._._._.\n| ._._._.   ._._._. |\n| | ._._.   ._._. | |\n| | | ._.   ._. | | |\n| | | |       | | | |\n|                   |\n| . . .       . . . |\n| | | |_.   ._| | | |\n| | |_._.   ._._| | |\n| |_._._.   ._._._| |\n|_._._._._._._._._._|'
p1035
a(lp1036
(dp1037
S'score'
p1038
I405
sS'ipaddr'
p1039
V127.0.0.1
p1040
sS'port'
p1041
I5001
sS'session_id'
p1042
I35762981
sS'tank_id'
p1043
I2
sa(dp1044
S'score'
p1045
I0
sS'ipaddr'
p1046
V127.0.0.1
p1047
sS'port'
p1048
I5002
sS'session_id'
p1049
I51649116
sS'tank_id'
p1050
I2
saasV69240683
p1051
(lp1052
S'._._._._._._._._._._.\n| . . . .   . . . . |\n| | | | |   | | | | |\n| | | | |   | | | | |\n| ._._._.   ._._._. |\n|_._. .       . ._._|\n|   | | .   . | |   |\n|   | | |   | | |   |\n|   | | |_._| | |   |\n|   | |       | |   |\n|_._._|_._._._|_._._|'
p1053
a(lp1054
(dp1055
S'ipaddr'
p1056
V127.0.0.1
p1057
sS'port'
p1058
I5001
sS'session_id'
p1059
I33777994
sS'tank_id'
p1060
I1
sa(dp1061
S'ipaddr'
p1062
V127.0.0.1
p1063
sS'port'
p1064
I5002
sS'session_id'
p1065
I71501540
sS'tank_id'
p1066
I2
saasV19937211
p1067
(lp1068
S'._._._._._._._._._._.\n| . . |_.   |_._.   |\n|_| | | ._. | ._._. |\n| ._|_._| | ._|_. | |\n| |_._._._._| ._._| |\n| . . . ._._._| ._._|\n| | | | | ._. | | . |\n| | | | ._| . |_._| |\n| | | | | | |_._| . |\n| ._| |_. |_._._._| |\n|_._._._._._._._._._|'
p1069
a(lp1070
(dp1071
S'score'
p1072
I405
sS'ipaddr'
p1073
V127.0.0.1
p1074
sS'port'
p1075
I5001
sS'session_id'
p1076
I96284971
sS'tank_id'
p1077
I2
sa(dp1078
S'score'
p1079
I0
sS'ipaddr'
p1080
V127.0.0.1
p1081
sS'port'
p1082
I5002
sS'session_id'
p1083
I13051216
sS'tank_id'
p1084
I2
saasV34388365
p1085
(lp1086
S'._._._._._._._._._._.\n| .               . |\n| |   ._.   ._.   | |\n| |   |       |   | |\n| |               | |\n|_._._._. . ._._._._|\n| ._. | ._| | ._._. |\n|_. |_._. | | | . | |\n| ._| ._._|_._._| | |\n| | . | . | ._._._| |\n|_._|_._|_._._._._._|'
p1087
a(lp1088
(dp1089
S'score'
p1090
I0
sS'ipaddr'
p1091
V127.0.0.1
p1092
sS'port'
p1093
I5001
sS'session_id'
p1094
I31633920
sS'tank_id'
p1095
I2
sa(dp1096
S'score'
p1097
I-1
sS'ipaddr'
p1098
V127.0.0.1
p1099
sS'port'
p1100
I5002
sS'session_id'
p1101
I79260371
sS'tank_id'
p1102
I2
saasV45243692
p1103
(lp1104
S'._._._._._._._._._._.\n|                   |\n| ._. ._.   ._. ._. |\n| | | | |   | | | | |\n|                   |\n|                   |\n| ._._._._._._._._. |\n|     |       |     |\n|     |   .   |     |\n|         |         |\n|_._._._._|_._._._._|'
p1105
a(lp1106
(dp1107
S'score'
p1108
I-1
sS'ipaddr'
p1109
V127.0.0.1
p1110
sS'port'
p1111
I5001
sS'session_id'
p1112
I18315565
sS'tank_id'
p1113
I2
sa(dp1114
S'score'
p1115
I-1
sS'ipaddr'
p1116
V127.0.0.1
p1117
sS'port'
p1118
I5002
sS'session_id'
p1119
I14367102
sS'tank_id'
p1120
I2
saasV65185713
p1121
(lp1122
S'._._._._._._._._._._.\n|   |  _._  |  _._  |\n|   |       |       |\n|   |       |       | \n|   |_.   ._|_.   ._|\n|   |   .   |   .   |\n|_.   ._|_.   ._|   |\n|       |       |   |\n|       |       |   |\n|  _._  |  _._  |   |\n|_._._._|_._._._|_._|'
p1123
a(lp1124
(dp1125
S'score'
p1126
I15
sS'ipaddr'
p1127
V192.168.1.35
p1128
sS'port'
p1129
I8800
sS'session_id'
p1130
I59435748
sS'tank_id'
p1131
I2
sa(dp1132
S'score'
p1133
I150
sS'ipaddr'
p1134
V192.168.1.37
p1135
sS'port'
p1136
I8800
sS'session_id'
p1137
I14655554
sS'tank_id'
p1138
I1
sa(dp1139
S'score'
p1140
I735
sS'ipaddr'
p1141
V192.168.1.39
p1142
sS'port'
p1143
I8800
sS'session_id'
p1144
I97444502
sS'tank_id'
p1145
I2
sa(dp1146
S'score'
p1147
I465
sS'ipaddr'
p1148
V192.168.1.38
p1149
sS'port'
p1150
I8800
sS'session_id'
p1151
I96077470
sS'tank_id'
p1152
I2
saasV60964106
p1153
(lp1154
S'._._._._._._._._._._.\n| . . ._.   |     . |\n|_| |       | ._._| |\n| ._| ._.   ._|   | |\n| ._._._._._| . ._| |\n| . | ._._._._| . | |\n| | | |   .     | . |\n| | | |   |   ._. | |\n| | | |   |   ._|   |\n| ._| |_. |_._._._. |\n|_._._._._._._._._._|'
p1155
a(lp1156
(dp1157
S'score'
p1158
I2160
sS'ipaddr'
p1159
V127.0.0.1
p1160
sS'port'
p1161
I5001
sS'session_id'
p1162
I81011399
sS'tank_id'
p1163
I2
sa(dp1164
S'score'
p1165
I0
sS'ipaddr'
p1166
V127.0.0.1
p1167
sS'port'
p1168
I5002
sS'session_id'
p1169
I44515653
sS'tank_id'
p1170
I1
saasV35570442
p1171
(lp1172
S'._._._._._._._._._._.\n| . . ._. . ._._. . |\n| | | | . |   ._. | |\n| ._|_._| | ._|   | |\n| ._._._._.   ._._| |\n| . | . ._._._| ._._|\n| | | | | ._. | |   |\n| . . . . ._|   |_. |\n| | | | | | ._._| . |\n| ._| |_. |_._._._| |\n|_._._._._._._._._._|'
p1173
a(lp1174
(dp1175
S'ipaddr'
p1176
V127.0.0.1
p1177
sS'port'
p1178
I5001
sS'session_id'
p1179
I91556053
sS'tank_id'
p1180
I2
sa(dp1181
S'ipaddr'
p1182
V127.0.0.1
p1183
sS'port'
p1184
I5002
sS'session_id'
p1185
I7579156
sS'tank_id'
p1186
I1
saasV47002345
p1187
(lp1188
S'._._._._._._._._._._.\n| .               . |\n| |   ._.   ._.   | |\n| |   |       |   | |\n| |               | |\n|_._._._. . ._._._._|\n| ._. | ._| | ._._. |\n|_. |_._. | | | . | |\n| ._| ._._|_._._| | |\n| | . | . | ._._._| |\n|_._|_._|_._._._._._|'
p1189
a(lp1190
(dp1191
S'score'
p1192
I0
sS'ipaddr'
p1193
V127.0.0.1
p1194
sS'port'
p1195
I5002
sS'session_id'
p1196
I42109140
sS'tank_id'
p1197
I2
sa(dp1198
S'score'
p1199
I0
sS'ipaddr'
p1200
V127.0.0.1
p1201
sS'port'
p1202
I5001
sS'session_id'
p1203
I36033508
sS'tank_id'
p1204
I2
saasV90497380
p1205
(lp1206
S'._._._._._._._._._._.\n|                   |\n| ._. ._.   ._. ._. |\n| | | | |   | | | | |\n|                   |\n|                   |\n| ._._._._._._._._. |\n|     |       |     |\n|     |   .   |     |\n|         |         |\n|_._._._._|_._._._._|'
p1207
a(lp1208
(dp1209
S'score'
p1210
I-1
sS'ipaddr'
p1211
V127.0.0.1
p1212
sS'port'
p1213
I5001
sS'session_id'
p1214
I8236836
sS'tank_id'
p1215
I2
sa(dp1216
S'score'
p1217
I-1
sS'ipaddr'
p1218
V127.0.0.1
p1219
sS'port'
p1220
I5002
sS'session_id'
p1221
I34807276
sS'tank_id'
p1222
I2
saasV28140790
p1223
(lp1224
S'._._._._._._._._._._.\n|       |   . ._._. |\n|_.   ._|_._| | . | |\n| . . . |   . | | | |\n| | | | ._._|_._|_. |\n| |_._| .   | .   . |\n|_.   ._|_._. |_._| |\n| . . . . . | |   | |\n| | |_|_| | |_. . ._|\n| |_. | ._| | ._|_. |\n|_._._._._._._._._._|'
p1225
a(lp1226
(dp1227
S'score'
p1228
I405
sS'ipaddr'
p1229
V127.0.0.1
p1230
sS'port'
p1231
I5001
sS'session_id'
p1232
I17965044
sS'tank_id'
p1233
I2
sa(dp1234
S'score'
p1235
I0
sS'ipaddr'
p1236
V127.0.0.1
p1237
sS'port'
p1238
I5002
sS'session_id'
p1239
I66963111
sS'tank_id'
p1240
I2
saasV61270901
p1241
(lp1242
S'._._._._._._._._._._.\n|       |   . ._._. |\n|_.   ._|_._| | . | |\n| . . . |   . | | | |\n| | | | ._._|_._|_. |\n| |_._| .   | .   . |\n|_.   ._|_._. |_._| |\n| . . . . . | |   | |\n| | |_|_| | |_. . ._|\n| |_. | ._| | ._|_. |\n|_._._._._._._._._._|'
p1243
a(lp1244
(dp1245
S'ipaddr'
p1246
V127.0.0.1
p1247
sS'port'
p1248
I5001
sS'session_id'
p1249
I605586
sS'tank_id'
p1250
I0
sa(dp1251
S'ipaddr'
p1252
V127.0.0.1
p1253
sS'port'
p1254
I5002
sS'session_id'
p1255
I50565511
sS'tank_id'
p1256
I2
saasV6031882
p1257
(lp1258
S'._._._._._._._._._._.\n| ._._._.   ._._._. |\n| | ._._.   ._._. | |\n| | | ._.   ._. | | |\n| | | |       | | | |\n|                   |\n| . . .       . . . |\n| | | |_.   ._| | | |\n| | |_._.   ._._| | |\n| |_._._.   ._._._| |\n|_._._._._._._._._._|'
p1259
a(lp1260
(dp1261
S'ipaddr'
p1262
V127.0.0.1
p1263
sS'port'
p1264
I5001
sS'session_id'
p1265
I34080144
sS'tank_id'
p1266
I2
sa(dp1267
S'score'
p1268
I0
sS'ipaddr'
p1269
V127.0.0.1
p1270
sS'port'
p1271
I5001
sS'session_id'
p1272
I37028836
sS'tank_id'
p1273
I2
sa(dp1274
S'score'
p1275
I0
sS'ipaddr'
p1276
V127.0.0.1
p1277
sS'port'
p1278
I5002
sS'session_id'
p1279
I80754796
sS'tank_id'
p1280
I2
saasV72835312
p1281
(lp1282
S'._._._._._._._._._._.\n| . . |_. . |_._. . |\n|_| | | ._. | ._._. |\n| ._|_._| | ._|_. | |\n| |_._._._._| ._._| |\n| . . . ._._._| ._._|\n| | | | | ._. | | . |\n| | | | ._| . |_._| |\n| | | | | | |_._| . |\n| ._| |_. |_._._._| |\n|_._._._._._._._._._|'
p1283
a(lp1284
(dp1285
S'score'
p1286
I405
sS'ipaddr'
p1287
V127.0.0.1
p1288
sS'port'
p1289
I5001
sS'session_id'
p1290
I646316
sS'tank_id'
p1291
I2
sa(dp1292
S'score'
p1293
I0
sS'ipaddr'
p1294
V127.0.0.1
p1295
sS'port'
p1296
I5002
sS'session_id'
p1297
I45793483
sS'tank_id'
p1298
I2
saasV9445645
p1299
(lp1300
S'._._._._._._._._._._.\n|_. ._. ._. ._. ._. |\n| ._._._. ._._._. ._|\n|_. ._._._. ._._._. |\n| ._. ._. ._. ._. ._|\n|_.   ._._._._.   ._|\n|_. ._._.   ._._. ._|\n| ._._._.   ._._._. |\n|_.   ._._._._.   ._|\n|   ._._.   ._._.   |\n|_._._._._._._._._._|'
p1301
a(lp1302
(dp1303
S'score'
p1304
I-1
sS'ipaddr'
p1305
V127.0.0.1
p1306
sS'port'
p1307
I5001
sS'session_id'
p1308
I25466314
sS'tank_id'
p1309
I2
sa(dp1310
S'score'
p1311
I-1
sS'ipaddr'
p1312
V127.0.0.1
p1313
sS'port'
p1314
I5002
sS'session_id'
p1315
I48901548
sS'tank_id'
p1316
I2
saasV67934554
p1317
(lp1318
S'._._._._._._._._._._.\n| . . . .   . . . . |\n| | | | |   | | | | |\n| | | | |   | | | | |\n| ._._._.   ._._._. |\n|_._. .       . ._._|\n|   | | .   . | |   |\n|   | | |   | | |   |\n|   | | |_._| | |   |\n|   | |       | |   |\n|_._._|_._._._|_._._|'
p1319
a(lp1320
(dp1321
S'score'
p1322
I1200
sS'ipaddr'
p1323
V192.168.1.37
p1324
sS'port'
p1325
I8800
sS'session_id'
p1326
I7708858
sS'tank_id'
p1327
I1
sa(dp1328
S'score'
p1329
I520
sS'ipaddr'
p1330
V192.168.1.36
p1331
sS'port'
p1332
I8800
sS'session_id'
p1333
I67261973
sS'tank_id'
p1334
I0
sa(dp1335
S'score'
p1336
I560
sS'ipaddr'
p1337
V192.168.1.35
p1338
sS'port'
p1339
I8800
sS'session_id'
p1340
I81185637
sS'tank_id'
p1341
I1
saasV76966854
p1342
(lp1343
S'._._._._._._._._._._.\n|                   |\n| ._. ._.   ._. ._. |\n| | | | |   | | | | |\n|                   |\n|                   |\n| ._._._._._._._._. |\n|     |       |     |\n|     |   .   |     |\n|         |         |\n|_._._._._|_._._._._|'
p1344
a(lp1345
(dp1346
S'score'
p1347
I-1
sS'ipaddr'
p1348
V127.0.0.1
p1349
sS'port'
p1350
I5001
sS'session_id'
p1351
I15062727
sS'tank_id'
p1352
I2
sa(dp1353
S'score'
p1354
I-1
sS'ipaddr'
p1355
V127.0.0.1
p1356
sS'port'
p1357
I5002
sS'session_id'
p1358
I74999419
sS'tank_id'
p1359
I2
saasV33760829
p1360
(lp1361
S'._._._._._._._._._._.\n| ._._._.   ._._._. |\n| | ._._.   ._._. | |\n| | | ._.   ._. | | |\n| | | |       | | | |\n|                   |\n| . . .       . . . |\n| | | |_.   ._| | | |\n| | |_._.   ._._| | |\n| |_._._.   ._._._| |\n|_._._._._._._._._._|'
p1362
a(lp1363
(dp1364
S'score'
p1365
I-1
sS'ipaddr'
p1366
V127.0.0.1
p1367
sS'port'
p1368
I5001
sS'session_id'
p1369
I76376940
sS'tank_id'
p1370
I2
sa(dp1371
S'score'
p1372
I-1
sS'ipaddr'
p1373
V127.0.0.1
p1374
sS'port'
p1375
I5002
sS'session_id'
p1376
I67137994
sS'tank_id'
p1377
I2
saasV37117961
p1378
(lp1379
S'._._._._._._._._._._.\n| . . ._.   |     . |\n|_| |       | ._._| |\n| ._| ._.   ._|   | |\n| ._._._._._| . ._| |\n| . | ._._._._| . | |\n| | | |   .     | . |\n| | | |   |   ._. | |\n| | | |   |   ._|   |\n| ._| |_. |_._._._. |\n|_._._._._._._._._._|'
p1380
a(lp1381
(dp1382
S'score'
p1383
I-1
sS'ipaddr'
p1384
V127.0.0.1
p1385
sS'port'
p1386
I5001
sS'session_id'
p1387
I72611376
sS'tank_id'
p1388
I2
sa(dp1389
S'score'
p1390
I0
sS'ipaddr'
p1391
V127.0.0.1
p1392
sS'port'
p1393
I5002
sS'session_id'
p1394
I29210495
sS'tank_id'
p1395
I2
saasV12501439
p1396
(lp1397
S'._._._._._._._._._._.\n|                   |\n|   ._._._._._._.   |\n|   |           |   |\n|   |   . ._.       |\n|   |   |   |   .   |\n|       |_. |   |   |\n|   .           |   |\n|   |_._._._._._|   |\n|                   |\n|_._._._._._._._._._|'
p1398
a(lp1399
(dp1400
S'score'
p1401
I945
sS'ipaddr'
p1402
V192.168.1.35
p1403
sS'port'
p1404
I8800
sS'session_id'
p1405
I46050296
sS'tank_id'
p1406
I5
sa(dp1407
S'score'
p1408
I210
sS'ipaddr'
p1409
V192.168.1.39
p1410
sS'port'
p1411
I8800
sS'session_id'
p1412
I30915962
sS'tank_id'
p1413
I1
sa(dp1414
S'score'
p1415
I360
sS'ipaddr'
p1416
V192.168.1.32
p1417
sS'port'
p1418
I8800
sS'session_id'
p1419
I95051813
sS'tank_id'
p1420
I0
sa(dp1421
S'score'
p1422
I375
sS'ipaddr'
p1423
V192.168.1.37
p1424
sS'port'
p1425
I8800
sS'session_id'
p1426
I53975722
sS'tank_id'
p1427
I0
sa(dp1428
S'score'
p1429
I675
sS'ipaddr'
p1430
V192.168.1.38
p1431
sS'port'
p1432
I8800
sS'session_id'
p1433
I53979679
sS'tank_id'
p1434
I2
sa(dp1435
S'score'
p1436
I345
sS'ipaddr'
p1437
V192.168.1.36
p1438
sS'port'
p1439
I8800
sS'session_id'
p1440
I40495711
sS'tank_id'
p1441
I2
saasV59836543
p1442
(lp1443
S'._._._._._._._._._._.\n| . | ._._._._. | . |\n| | ._._._._._._. | |\n| | ._._. . ._._. | |\n|_| |   . | .   | |_|\n| ._| ._| | |_. |_. |\n|_._._._. | ._._._._|\n|_. . |  ._.  | ._. |\n| ._| |  ._.  | | | |\n| | . |_.   ._|     |\n|_._|_._._._._._|_|_|'
p1444
a(lp1445
(dp1446
S'score'
p1447
I360
sS'ipaddr'
p1448
V127.0.0.1
p1449
sS'port'
p1450
I5001
sS'session_id'
p1451
I41904760
sS'tank_id'
p1452
I2
sa(dp1453
S'score'
p1454
I405
sS'ipaddr'
p1455
V127.0.0.1
p1456
sS'port'
p1457
I5002
sS'session_id'
p1458
I65159038
sS'tank_id'
p1459
I2
saasV80824963
p1460
(lp1461
S'._._._._._._._._._._.\n| . . ._. . ._._. . |\n| | | | . |   ._. | |\n| ._|_._| | ._|   | |\n| ._._._._.   ._._| |\n| . | . ._._._| ._._|\n| | | | | ._. | |   |\n| . . . . ._|   |_. |\n| | | | | | ._._| . |\n| ._| |_. |_._._._| |\n|_._._._._._._._._._|'
p1462
a(lp1463
(dp1464
S'score'
p1465
I0
sS'ipaddr'
p1466
V127.0.0.1
p1467
sS'port'
p1468
I5003
sS'session_id'
p1469
I20862096
sS'tank_id'
p1470
I2
sa(dp1471
S'score'
p1472
I0
sS'ipaddr'
p1473
V127.0.0.1
p1474
sS'port'
p1475
I5002
sS'session_id'
p1476
I69718794
sS'tank_id'
p1477
I2
sa(dp1478
S'score'
p1479
I0
sS'ipaddr'
p1480
V127.0.0.1
p1481
sS'port'
p1482
I5001
sS'session_id'
p1483
I41115211
sS'tank_id'
p1484
I2
saasV15636537
p1485
(lp1486
S'._._._._._._._._._._.\n|   | | | | | | |   |\n|_.               ._|\n|_.     ._._.     ._|\n|_.   .   |   .   ._|\n|_.   |_.   ._|   ._|\n|_.   |   .   |   ._|\n|_.     ._|_.     ._|\n|_.               ._|\n|   . . . . . . .   |\n|_._|_|_|_|_|_|_|_._|'
p1487
a(lp1488
(dp1489
S'ipaddr'
p1490
V127.0.0.1
p1491
sS'port'
p1492
I5001
sS'session_id'
p1493
I90978336
sS'tank_id'
p1494
I2
sa(dp1495
S'ipaddr'
p1496
V127.0.0.1
p1497
sS'port'
p1498
I5002
sS'session_id'
p1499
I45015218
sS'tank_id'
p1500
I2
saasV29134333
p1501
(lp1502
S'._._._._._._._._._._.\n| .               . |\n| |   ._.   ._.   | |\n| |   |       |   | |\n| |               | |\n|_._._._. . ._._._._|\n| ._. | ._| | ._._. |\n|_. |_._. | | | . | |\n| ._| ._._|_._._| | |\n| | . | . | ._._._| |\n|_._|_._|_._._._._._|'
p1503
a(lp1504
(dp1505
S'score'
p1506
I640
sS'ipaddr'
p1507
V192.168.1.38
p1508
sS'port'
p1509
I8800
sS'session_id'
p1510
I13716778
sS'tank_id'
p1511
I2
sa(dp1512
S'score'
p1513
I1640
sS'ipaddr'
p1514
V192.168.1.37
p1515
sS'port'
p1516
I8800
sS'session_id'
p1517
I45033221
sS'tank_id'
p1518
I0
sa(dp1519
S'score'
p1520
I240
sS'ipaddr'
p1521
V192.168.1.36
p1522
sS'port'
p1523
I8800
sS'session_id'
p1524
I75033364
sS'tank_id'
p1525
I5
sa(dp1526
S'score'
p1527
I1280
sS'ipaddr'
p1528
V192.168.1.35
p1529
sS'port'
p1530
I8800
sS'session_id'
p1531
I71897140
sS'tank_id'
p1532
I1
saasV43166088
p1533
(lp1534
S'._._._._._._._._._._.\n|   | | | | | | |   |\n|_.               ._|\n|_.     ._._.     ._|\n|_.   .   |   .   ._|\n|_.   |_.   ._|   ._|\n|_.   |   .   |   ._|\n|_.     ._|_.     ._|\n|_.               ._|\n|   . . . . . . .   |\n|_._|_|_|_|_|_|_|_._|'
p1535
a(lp1536
(dp1537
S'ipaddr'
p1538
V127.0.0.1
p1539
sS'port'
p1540
I5003
sS'session_id'
p1541
I40185902
sS'tank_id'
p1542
I2
sa(dp1543
S'ipaddr'
p1544
V127.0.0.1
p1545
sS'port'
p1546
I5001
sS'session_id'
p1547
I27266485
sS'tank_id'
p1548
I2
sa(dp1549
S'ipaddr'
p1550
V127.0.0.1
p1551
sS'port'
p1552
I5002
sS'session_id'
p1553
I78860961
sS'tank_id'
p1554
I1
saasV14865556
p1555
(lp1556
S'._._._._._._._._._._.\n|   | | | | | | |   |\n|_.               ._|\n|_.     ._._.     ._|\n|_.   .   |   .   ._|\n|_.   |_.   ._|   ._|\n|_.   |   .   |   ._|\n|_.     ._|_.     ._|\n|_.               ._|\n|   . . . . . . .   |\n|_._|_|_|_|_|_|_|_._|'
p1557
a(lp1558
(dp1559
S'score'
p1560
I0
sS'ipaddr'
p1561
V127.0.0.1
p1562
sS'port'
p1563
I5001
sS'session_id'
p1564
I36232146
sS'tank_id'
p1565
I2
sa(dp1566
S'score'
p1567
I30
sS'ipaddr'
p1568
V127.0.0.1
p1569
sS'port'
p1570
I5002
sS'session_id'
p1571
I67050651
sS'tank_id'
p1572
I2
saasV33186503
p1573
(lp1574
S'._._._._._._._._._._.\n|   ._._.   ._._.   |\n|     |     |_. |   |\n|     |     |   |   |\n|     |     |   |   |\n|                   |\n|   ._. .   . ._.   |\n|   | | |   |_|     |\n|   | | |   |_.     |\n|   | |_|   | |_.   |\n|_._._._._._._._._._|'
p1575
a(lp1576
(dp1577
S'score'
p1578
I150
sS'ipaddr'
p1579
V192.168.1.32
p1580
sS'port'
p1581
I8800
sS'session_id'
p1582
I96963225
sS'tank_id'
p1583
I1
sa(dp1584
S'score'
p1585
I570
sS'ipaddr'
p1586
V192.168.1.33
p1587
sS'port'
p1588
I8800
sS'session_id'
p1589
I87338111
sS'tank_id'
p1590
I2
saasV18566901
p1591
(lp1592
S'._._._._._._._._._._.\n| ._._._.   ._._._. |\n| | ._.       ._. | |\n| | |_.       ._| | |\n| |_._._.   ._._._| |\n|                   |\n| ._._._.   ._._._. |\n| |     |   |     | |\n| |   ._|   |_.   | |\n| |_._._.   ._._._| |\n|_._._._._._._._._._|'
p1593
a(lp1594
(dp1595
S'score'
p1596
I0
sS'ipaddr'
p1597
V127.0.0.1
p1598
sS'port'
p1599
I5001
sS'session_id'
p1600
I20493194
sS'tank_id'
p1601
I2
sa(dp1602
S'score'
p1603
I0
sS'ipaddr'
p1604
V127.0.0.1
p1605
sS'port'
p1606
I5002
sS'session_id'
p1607
I84541958
sS'tank_id'
p1608
I2
saasV97055325
p1609
(lp1610
S'._._._._._._._._._._.\n| ._. ._. | ._. ._. |\n| | ._. | | |     | |\n|   |_. |_.         |\n| |_._.   | |_. ._| |\n|_._. |_._|_._. ._._|\n| ._._._._|         |\n| | . ._. |         |\n| | | | | .         |\n|_._|_. | |         |\n|_._._._._|_._._._._|'
p1611
a(lp1612
(dp1613
S'ipaddr'
p1614
V127.0.0.1
p1615
sS'port'
p1616
I5001
sS'session_id'
p1617
I4262063
sS'tank_id'
p1618
I2
sa(dp1619
S'ipaddr'
p1620
V127.0.0.1
p1621
sS'port'
p1622
I5002
sS'session_id'
p1623
I8042971
sS'tank_id'
p1624
I2
saasV34968401
p1625
(lp1626
S'._._._._._._._._._._.\n|_. ._. ._. ._. ._. |\n| ._._._. ._._._. ._|\n|_. ._._._. ._._._. |\n| ._. ._. ._. ._. ._|\n|_.   ._._._._.   ._|\n|_. ._._.   ._._. ._|\n| ._._._.   ._._._. |\n|_.   ._._._._.   ._|\n|   ._._.   ._._.   |\n|_._._._._._._._._._|'
p1627
a(lp1628
(dp1629
S'score'
p1630
I75
sS'ipaddr'
p1631
V127.0.0.1
p1632
sS'port'
p1633
I5001
sS'session_id'
p1634
I33026622
sS'tank_id'
p1635
I2
sa(dp1636
S'score'
p1637
I0
sS'ipaddr'
p1638
V127.0.0.1
p1639
sS'port'
p1640
I5002
sS'session_id'
p1641
I94486940
sS'tank_id'
p1642
I2
saasV92095075
p1643
(lp1644
S'._._._._._._._._._._.\n|_. ._. ._. ._. ._. |\n| ._._._. ._._._. ._|\n|_. ._._._. ._._._. |\n| ._. ._. ._. ._. ._|\n|_.   ._._._._.   ._|\n|_. ._._.   ._._. ._|\n| ._._._.   ._._._. |\n|_.   ._._._._.   ._|\n|   ._._.   ._._.   |\n|_._._._._._._._._._|'
p1645
a(lp1646
(dp1647
S'score'
p1648
I0
sS'ipaddr'
p1649
V127.0.0.1
p1650
sS'port'
p1651
I5001
sS'session_id'
p1652
I75402144
sS'tank_id'
p1653
I2
sa(dp1654
S'score'
p1655
I120
sS'ipaddr'
p1656
V127.0.0.1
p1657
sS'port'
p1658
I5002
sS'session_id'
p1659
I35341882
sS'tank_id'
p1660
I2
saasV26659579
p1661
(lp1662
S'._._._._._._._._._._.\n| .       |       . |\n| |_._.   |   ._._| |\n| | ._.   |   ._. | |\n| | | ._.   ._. | | |\n| |   |       |   | |\n| | ._. ._._. ._. | |\n| | |   | . |   | | |\n| |_._.   |   ._._| |\n| |       |       | |\n|_._._._._|_._._._._|'
p1663
a(lp1664
(dp1665
S'score'
p1666
I1800
sS'ipaddr'
p1667
V192.168.1.36
p1668
sS'port'
p1669
I8800
sS'session_id'
p1670
I30383928
sS'tank_id'
p1671
I5
sa(dp1672
S'score'
p1673
I0
sS'ipaddr'
p1674
V192.168.1.37
p1675
sS'port'
p1676
I8800
sS'session_id'
p1677
I13881047
sS'tank_id'
p1678
I1
sa(dp1679
S'score'
p1680
I400
sS'ipaddr'
p1681
V192.168.1.38
p1682
sS'port'
p1683
I8800
sS'session_id'
p1684
I77827191
sS'tank_id'
p1685
I2
sa(dp1686
S'score'
p1687
I560
sS'ipaddr'
p1688
V192.168.1.35
p1689
sS'port'
p1690
I8800
sS'session_id'
p1691
I91808598
sS'tank_id'
p1692
I1
saasV57597708
p1693
(lp1694
S'._._._._._._._._._._.\n|   ._._.   ._._.   |\n|     |     |_. |   |\n|     |     |   |   |\n|     |     |   |   |\n|                   |\n|   ._. .   . ._.   |\n|   | | |   |_|     |\n|   | | |   |_.     |\n|   | |_|   | |_.   |\n|_._._._._._._._._._|'
p1695
a(lp1696
(dp1697
S'score'
p1698
I0
sS'ipaddr'
p1699
V127.0.0.1
p1700
sS'port'
p1701
I5001
sS'session_id'
p1702
I45392462
sS'tank_id'
p1703
I2
sa(dp1704
S'score'
p1705
I0
sS'ipaddr'
p1706
V127.0.0.1
p1707
sS'port'
p1708
I5003
sS'session_id'
p1709
I91412020
sS'tank_id'
p1710
I2
saasV9939879
p1711
(lp1712
S'._._._._._._._._._._.\n| .               . |\n| |   ._.   ._.   | |\n| |   |       |   | |\n| |               | |\n|_._._._. . ._._._._|\n| ._. | ._| | ._._. |\n|_. |_._. | | | . | |\n| ._| ._._|_._._| | |\n| | . | . | ._._._| |\n|_._|_._|_._._._._._|'
p1713
a(lp1714
(dp1715
S'score'
p1716
I0
sS'ipaddr'
p1717
V127.0.0.1
p1718
sS'port'
p1719
I5002
sS'session_id'
p1720
I63099063
sS'tank_id'
p1721
I2
sa(dp1722
S'score'
p1723
I0
sS'ipaddr'
p1724
V127.0.0.1
p1725
sS'port'
p1726
I5003
sS'session_id'
p1727
I50735702
sS'tank_id'
p1728
I2
sa(dp1729
S'score'
p1730
I300
sS'ipaddr'
p1731
V127.0.0.1
p1732
sS'port'
p1733
I5001
sS'session_id'
p1734
I93394881
sS'tank_id'
p1735
I5
saasV150906
p1736
(lp1737
S'._._._._._._._._._._.\n| . . |_.   |_._.    \n|_| | | ._. | ._._. |\n| ._|_._| | ._|_. | |\n| |_._._._._| ._._| |\n| . . . ._._._| ._._|\n| | | | | ._. | | . |\n| | | | ._| . |_._| |\n| | | | | | |_._| . |\n| ._| |_. |_._._._| |\n|_._._._._._._._._._|'
p1738
a(lp1739
(dp1740
S'ipaddr'
p1741
V127.0.0.1
p1742
sS'port'
p1743
I5001
sS'session_id'
p1744
I6722499
sS'tank_id'
p1745
I2
sa(dp1746
S'ipaddr'
p1747
V127.0.0.1
p1748
sS'port'
p1749
I5002
sS'session_id'
p1750
I62107512
sS'tank_id'
p1751
I2
saasV90631454
p1752
(lp1753
S'._._._._._._._._._._.\n| . . ._. . ._._. . |\n| | | | . |   ._. | |\n| ._|_._| | ._|   | |\n| ._._._._.   ._._| |\n| . | . ._._._| ._._|\n| | | | | ._. | |   |\n| . . . . ._|   |_. |\n| | | | | | ._._| . |\n| ._| |_. |_._._._| |\n|_._._._._._._._._._|'
p1754
a(lp1755
(dp1756
S'score'
p1757
I0
sS'ipaddr'
p1758
V192.168.1.39
p1759
sS'port'
p1760
I8800
sS'session_id'
p1761
I71984770
sS'tank_id'
p1762
I4
sa(dp1763
S'ipaddr'
p1764
V192.168.1.38
p1765
sS'port'
p1766
I8800
sS'session_id'
p1767
I65874702
sS'tank_id'
p1768
I2
saasV37869404
p1769
(lp1770
S'._._._._._._._._._._.\n|_. ._. ._. ._. ._. |\n| ._._._. ._._._. ._|\n|_. ._._._. ._._._. |\n| ._. ._. ._. ._. ._|\n|_.   ._._._._.   ._|\n|_. ._._.   ._._. ._|\n| ._._._.   ._._._. |\n|_.   ._._._._.   ._|\n|   ._._.   ._._.   |\n|_._._._._._._._._._|'
p1771
a(lp1772
(dp1773
S'score'
p1774
I1880
sS'ipaddr'
p1775
V127.0.0.1
p1776
sS'port'
p1777
I5001
sS'session_id'
p1778
I23534608
sS'tank_id'
p1779
I2
sa(dp1780
S'score'
p1781
I0
sS'ipaddr'
p1782
V127.0.0.1
p1783
sS'port'
p1784
I5003
sS'session_id'
p1785
I27947559
sS'tank_id'
p1786
I1
saasV86966159
p1787
(lp1788
S'._._._._._._._._._._.\n| . . ._.   |     . |\n|_| |       | ._._| |\n| ._| ._.   ._|   | |\n| ._._._._._| . ._| |\n| . | ._._._._| . | |\n| | | |   .     | . |\n| | | |   |   ._. | |\n| | | |   |   ._|   |\n| ._| |_. |_._._._. |\n|_._._._._._._._._._|'
p1789
a(lp1790
(dp1791
S'score'
p1792
I-1
sS'ipaddr'
p1793
V127.0.0.1
p1794
sS'port'
p1795
I5001
sS'session_id'
p1796
I85378908
sS'tank_id'
p1797
I2
sa(dp1798
S'score'
p1799
I-1
sS'ipaddr'
p1800
V127.0.0.1
p1801
sS'port'
p1802
I5002
sS'session_id'
p1803
I3123314
sS'tank_id'
p1804
I2
saasV89646664
p1805
(lp1806
S'._._._._._._._._._._.\n|   | | | | | | |   |\n|_.               ._|\n|_.     ._._.     ._|\n|_.   .   |   .   ._|\n|_.   |_.   ._|   ._|\n|_.   |   .   |   ._|\n|_.     ._|_.     ._|\n|_.               ._|\n|   . . . . . . .   |\n|_._|_|_|_|_|_|_|_._|'
p1807
a(lp1808
(dp1809
S'score'
p1810
I0
sS'ipaddr'
p1811
V127.0.0.1
p1812
sS'port'
p1813
I5001
sS'session_id'
p1814
I70485930
sS'tank_id'
p1815
I2
sa(dp1816
S'score'
p1817
I0
sS'ipaddr'
p1818
V127.0.0.1
p1819
sS'port'
p1820
I5002
sS'session_id'
p1821
I60892999
sS'tank_id'
p1822
I2
saasV4548114
p1823
(lp1824
S'._._._._._._._._._._.\n| .       |       . |\n| |_._.   |   ._._| |\n| | ._.   |   ._. | |\n| | | ._.   ._. | | |\n| |   |       |   | |\n| | ._. ._._. ._. | |\n| | |   | . |   | | |\n| |_._.   |   ._._| |\n| |       |       | |\n|_._._._._|_._._._._|'
p1825
a(lp1826
(dp1827
S'score'
p1828
I0
sS'ipaddr'
p1829
V127.0.0.1
p1830
sS'port'
p1831
I5001
sS'session_id'
p1832
I70689814
sS'tank_id'
p1833
I2
sa(dp1834
S'score'
p1835
I0
sS'ipaddr'
p1836
V127.0.0.1
p1837
sS'port'
p1838
I5002
sS'session_id'
p1839
I65569469
sS'tank_id'
p1840
I1
saasV96972749
p1841
(lp1842
S'._._._._._._._._._._.\n|   .   .   .   |   |\n| ._|_. |_._|_._._. |\n|   |   |   .   |   |\n|_._| ._._._|_._| ._|\n|   |   |   |   .   |\n| ._._._. ._. ._|_._|\n|   |   |   |   .   |\n|_._| ._|_. |_._| ._|\n|   .   |   |   |   |\n|_._|_._._._|_._._._|'
p1843
a(lp1844
(dp1845
S'ipaddr'
p1846
V127.0.0.1
p1847
sS'port'
p1848
I5001
sS'session_id'
p1849
I46845500
sS'tank_id'
p1850
I1
sa(dp1851
S'ipaddr'
p1852
V127.0.0.1
p1853
sS'port'
p1854
I5002
sS'session_id'
p1855
I12888940
sS'tank_id'
p1856
I2
saasV46989562
p1857
(lp1858
S'._._._._._._._._._._.\n|   |  _._  |  _._  |\n|   |       |       |\n|   |       |       | \n|   |_.   ._|_.   ._|\n|   |   .   |   .   |\n|_.   ._|_.   ._|   |\n|       |       |   |\n|       |       |   |\n|  _._  |  _._  |   |\n|_._._._|_._._._|_._|'
p1859
a(lp1860
(dp1861
S'score'
p1862
I15
sS'ipaddr'
p1863
V127.0.0.1
p1864
sS'port'
p1865
I5001
sS'session_id'
p1866
I88365955
sS'tank_id'
p1867
I2
sa(dp1868
S'score'
p1869
I0
sS'ipaddr'
p1870
V127.0.0.1
p1871
sS'port'
p1872
I5002
sS'session_id'
p1873
I2898019
sS'tank_id'
p1874
I2
saasV36876456
p1875
(lp1876
S'._._._._._._._._._._.\n| .       |       . |\n| |_._.   |   ._._| |\n| | ._.   |   ._. | |\n| | | ._.   ._. | | |\n| |   |       |   | |\n| | ._. ._._. ._. | |\n| | |   | . |   | | |\n| |_._.   |   ._._| |\n| |       |       | |\n|_._._._._|_._._._._|'
p1877
a(lp1878
(dp1879
S'ipaddr'
p1880
V127.0.0.1
p1881
sS'port'
p1882
I5001
sS'session_id'
p1883
I93002971
sS'tank_id'
p1884
I2
sa(dp1885
S'ipaddr'
p1886
V127.0.0.1
p1887
sS'port'
p1888
I5002
sS'session_id'
p1889
I60249252
sS'tank_id'
p1890
I2
saasV29394179
p1891
(lp1892
S'._._._._._._._._._._.\n|                   |\n| ._. ._.   ._. ._. |\n| | | | |   | | | | |\n|                   |\n|                   |\n| ._._._._._._._._. |\n|     |       |     |\n|     |   .   |     |\n|         |         |\n|_._._._._|_._._._._|'
p1893
a(lp1894
(dp1895
S'score'
p1896
I360
sS'ipaddr'
p1897
V127.0.0.1
p1898
sS'port'
p1899
I5001
sS'session_id'
p1900
I92509545
sS'tank_id'
p1901
I2
sa(dp1902
S'score'
p1903
I0
sS'ipaddr'
p1904
V127.0.0.1
p1905
sS'port'
p1906
I5002
sS'session_id'
p1907
I46233935
sS'tank_id'
p1908
I2
saasV33793773
p1909
(lp1910
S'._._._._._._._._._._.\n|_. ._. ._. ._. ._. |\n| ._._._. ._._._. ._|\n|_. ._._._. ._._._. |\n| ._. ._. ._. ._. ._|\n|_.   ._._._._.   ._|\n|_. ._._.   ._._. ._|\n| ._._._.   ._._._. |\n|_.   ._._._._.   ._|\n|   ._._.   ._._.   |\n|_._._._._._._._._._|'
p1911
a(lp1912
(dp1913
S'score'
p1914
I315
sS'ipaddr'
p1915
V192.168.1.39
p1916
sS'port'
p1917
I8800
sS'session_id'
p1918
I47348660
sS'tank_id'
p1919
I0
sa(dp1920
S'score'
p1921
I150
sS'ipaddr'
p1922
V192.168.1.37
p1923
sS'port'
p1924
I8800
sS'session_id'
p1925
I66001266
sS'tank_id'
p1926
I2
sa(dp1927
S'score'
p1928
I405
sS'ipaddr'
p1929
V192.168.1.35
p1930
sS'port'
p1931
I8800
sS'session_id'
p1932
I23225986
sS'tank_id'
p1933
I1
sa(dp1934
S'score'
p1935
I390
sS'ipaddr'
p1936
V192.168.1.38
p1937
sS'port'
p1938
I8800
sS'session_id'
p1939
I11704469
sS'tank_id'
p1940
I2
saasV49122379
p1941
(lp1942
S'._._._._._._._._._._.\n| . . |_. . |_._. . |\n|_| | | ._. | ._._. |\n| ._|_._| | ._|_. | |\n| |_._._._._| ._._| |\n| . . . ._._._| ._._|\n| | | | | ._. | | . |\n| | | | ._| . |_._| |\n| | | | | | |_._| . |\n| ._| |_. |_._._._| |\n|_._._._._._._._._._|'
p1943
a(lp1944
(dp1945
S'ipaddr'
p1946
V192.168.1.38
p1947
sS'port'
p1948
I8800
sS'session_id'
p1949
I67431923
sS'tank_id'
p1950
I2
sa(dp1951
S'score'
p1952
I0
sS'ipaddr'
p1953
V192.168.1.39
p1954
sS'port'
p1955
I8800
sS'session_id'
p1956
I28006564
sS'tank_id'
p1957
I2
saasV38580883
p1958
(lp1959
S'._._._._._._._._._._.\n| . . ._. . ._._. . |\n| | | | . |   ._. | |\n| ._|_._| | ._|   | |\n| ._._._._.   ._._| |\n| . | . ._._._| ._._|\n| | | | | ._. | |   |\n| . . . . ._|   |_. |\n| | | | | | ._._| . |\n| ._| |_. |_._._._| |\n|_._._._._._._._._._|'
p1960
a(lp1961
(dp1962
S'score'
p1963
I0
sS'ipaddr'
p1964
V127.0.0.1
p1965
sS'port'
p1966
I5001
sS'session_id'
p1967
I56293810
sS'tank_id'
p1968
I2
sa(dp1969
S'score'
p1970
I405
sS'ipaddr'
p1971
V127.0.0.1
p1972
sS'port'
p1973
I5002
sS'session_id'
p1974
I69109421
sS'tank_id'
p1975
I2
saasV84147932
p1976
(lp1977
S'._._._._._._._._._._.\n| .               . |\n| |   ._.   ._.   | |\n| |   |       |   | |\n| |               | |\n|_._._._. . ._._._._|\n| ._. | ._| | ._._. |\n|_. |_._. | | | . | |\n| ._| ._._|_._._| | |\n| | . | . | ._._._| |\n|_._|_._|_._._._._._|'
p1978
a(lp1979
(dp1980
S'score'
p1981
I0
sS'ipaddr'
p1982
V127.0.0.1
p1983
sS'port'
p1984
I5001
sS'session_id'
p1985
I72256136
sS'tank_id'
p1986
I2
sa(dp1987
S'score'
p1988
I0
sS'ipaddr'
p1989
V127.0.0.1
p1990
sS'port'
p1991
I5002
sS'session_id'
p1992
I86867948
sS'tank_id'
p1993
I2
saasV73158929
p1994
(lp1995
S'._._._._._._._._._._.\n| .       |       . |\n| |_._.   |   ._._| |\n| | ._.   |   ._. | |\n| | | ._.   ._. | | |\n| |   |       |   | |\n| | ._. ._._. ._. | |\n| | |   | . |   | | |\n| |_._.   |   ._._| |\n| |       |       | |\n|_._._._._|_._._._._|'
p1996
a(lp1997
(dp1998
S'score'
p1999
I-1
sS'ipaddr'
p2000
V127.0.0.1
p2001
sS'port'
p2002
I5001
sS'session_id'
p2003
I10138972
sS'tank_id'
p2004
I2
sa(dp2005
S'score'
p2006
I-1
sS'ipaddr'
p2007
V127.0.0.1
p2008
sS'port'
p2009
I5002
sS'session_id'
p2010
I91413905
sS'tank_id'
p2011
I2
saasV26422610
p2012
(lp2013
S'._._._._._._._._._._.\n| . . |_. . |_._. . |\n|_| | | ._. | ._._. |\n| ._|_._| | ._|_. | |\n| |_._._._._| ._._| |\n| . . . ._._._| ._._|\n| | | | | ._. | | . |\n| | | | ._| . |_._| |\n| | | | | | |_._| . |\n| ._| |_. |_._._._| |\n|_._._._._._._._._._|'
p2014
a(lp2015
(dp2016
S'ipaddr'
p2017
V127.0.0.1
p2018
sS'port'
p2019
I5003
sS'session_id'
p2020
I38029097
sS'tank_id'
p2021
I1
sa(dp2022
S'score'
p2023
I0
sS'ipaddr'
p2024
V127.0.0.1
p2025
sS'port'
p2026
I5002
sS'session_id'
p2027
I7033203
sS'tank_id'
p2028
I2
sa(dp2029
S'score'
p2030
I340
sS'ipaddr'
p2031
V127.0.0.1
p2032
sS'port'
p2033
I5001
sS'session_id'
p2034
I17130118
sS'tank_id'
p2035
I0
saasV88684503
p2036
(lp2037
S'._._._._._._._._._._.\n|   |_. ._._. ._|   |\n|_.   |_.   ._|   ._|\n| |_.   |   |   ._| |\n| . |   ._._.   | . |\n| |               | |\n| | .   ._._.   . | |\n| ._|   .   .   |_. |\n|_|   ._|   |_.   |_|\n|   ._| ._._. |_.   |\n|_._|_._._._._._|_._|'
p2038
a(lp2039
(dp2040
S'score'
p2041
I-1
sS'ipaddr'
p2042
V127.0.0.1
p2043
sS'port'
p2044
I5001
sS'session_id'
p2045
I16116416
sS'tank_id'
p2046
I2
sa(dp2047
S'score'
p2048
I-1
sS'ipaddr'
p2049
V127.0.0.1
p2050
sS'port'
p2051
I5002
sS'session_id'
p2052
I32884359
sS'tank_id'
p2053
I2
saasV35564626
p2054
(lp2055
S'._._._._._._._._._._.\n|       |   . ._._. |\n|_.   ._|_._| | . | |\n| . . . |   . | | | |\n| | | | ._._|_._|_. |\n| |_._| .   | .   . |\n|_.   ._|_._. |_._| |\n| . . . . . | |   | |\n| | |_|_| | |_. . ._|\n| |_. | ._| | ._|_. |\n|_._._._._._._._._._|'
p2056
a(lp2057
(dp2058
S'score'
p2059
I-1
sS'ipaddr'
p2060
V127.0.0.1
p2061
sS'port'
p2062
I5001
sS'session_id'
p2063
I16557627
sS'tank_id'
p2064
I2
sa(dp2065
S'score'
p2066
I-1
sS'ipaddr'
p2067
V127.0.0.1
p2068
sS'port'
p2069
I5002
sS'session_id'
p2070
I66893026
sS'tank_id'
p2071
I2
saasV19661661
p2072
(lp2073
S'._._._._._._._._._._.\n| ._. ._. | ._. ._. |\n| | ._. | | |     | |\n|   |_. |_.         |\n| |_._.   | |_. ._| |\n|_._. |_._|_._. ._._|\n| ._._._._|         |\n| | . ._. |         |\n| | | | | .         |\n|_._|_. | |         |\n|_._._._._|_._._._._|'
p2074
a(lp2075
(dp2076
S'ipaddr'
p2077
V192.168.1.37
p2078
sS'port'
p2079
I8800
sS'session_id'
p2080
I8498182
sS'tank_id'
p2081
I2
sa(dp2082
S'score'
p2083
I0
sS'ipaddr'
p2084
V192.168.1.39
p2085
sS'port'
p2086
I8800
sS'session_id'
p2087
I6217084
sS'tank_id'
p2088
I5
saasV24430213
p2089
(lp2090
S'._._._._._._._._._._.\n|   |_. ._._. ._|   |\n|_.   |_.   ._|   ._|\n| |_.   |   |   ._| |\n| . |   ._._.   | . |\n| |               | |\n| | .   ._._.   . | |\n| ._|   .   .   |_. |\n|_|   ._|   |_.   |_|\n|   ._| ._._. |_.   |\n|_._|_._._._._._|_._|'
p2091
a(lp2092
(dp2093
S'ipaddr'
p2094
V127.0.0.1
p2095
sS'port'
p2096
I5001
sS'session_id'
p2097
I10813206
sS'tank_id'
p2098
I2
sa(dp2099
S'ipaddr'
p2100
V127.0.0.1
p2101
sS'port'
p2102
I5002
sS'session_id'
p2103
I52889949
sS'tank_id'
p2104
I2
saasV6238398
p2105
(lp2106
S'._._._._._._._._._._.\n| . . ._.   |     . |\n|_| |       | ._._| |\n| ._| ._.   ._|   | |\n| ._._._._._| . ._| |\n| . | ._._._._| . | |\n| | | |   .     | . |\n| | | |   |   ._. | |\n| | | |   |   ._|   |\n| ._| |_. |_._._._. |\n|_._._._._._._._._._|'
p2107
a(lp2108
(dp2109
S'score'
p2110
I390
sS'ipaddr'
p2111
V127.0.0.1
p2112
sS'port'
p2113
I5001
sS'session_id'
p2114
I66990764
sS'tank_id'
p2115
I2
sa(dp2116
S'score'
p2117
I0
sS'ipaddr'
p2118
V127.0.0.1
p2119
sS'port'
p2120
I5002
sS'session_id'
p2121
I62979420
sS'tank_id'
p2122
I2
saasV17586614
p2123
(lp2124
S'._._._._._._._._._._.\n| ._._._.   ._._._. |\n| | ._._.   ._._. | |\n| | | ._.   ._. | | |\n| | | |       | | | |\n|                   |\n| . . .       . . . |\n| | | |_.   ._| | | |\n| | |_._.   ._._| | |\n| |_._._.   ._._._| |\n|_._._._._._._._._._|'
p2125
a(lp2126
(dp2127
S'score'
p2128
I0
sS'ipaddr'
p2129
V127.0.0.1
p2130
sS'port'
p2131
I5003
sS'session_id'
p2132
I19822846
sS'tank_id'
p2133
I2
sa(dp2134
S'score'
p2135
I0
sS'ipaddr'
p2136
V127.0.0.1
p2137
sS'port'
p2138
I5001
sS'session_id'
p2139
I81329220
sS'tank_id'
p2140
I2
saasV77130408
p2141
(lp2142
S'._._._._._._._._._._.\n| . . |_. . |_._. . |\n|_| | | ._| | ._._| |\n| ._|_._| | ._|_. | |\n| |_._._._._| ._._| |\n| . | ._._._._| ._._|\n| | | | | ._. | | . |\n| | | | ._| . |_._| |\n|_| | | | | |_._| ._|\n| ._| |_. |_._._._| |\n|_._._|_._._._._._._|'
p2143
a(lp2144
(dp2145
S'ipaddr'
p2146
V127.0.0.1
p2147
sS'port'
p2148
I5001
sS'session_id'
p2149
I94824940
sS'tank_id'
p2150
I1
sa(dp2151
S'ipaddr'
p2152
V127.0.0.1
p2153
sS'port'
p2154
I5002
sS'session_id'
p2155
I98789964
sS'tank_id'
p2156
I2
saasV82736157
p2157
(lp2158
S'._._._._._._._._._._.\n|                   |\n| ._. ._.   ._. ._. |\n| | | | |   | | | | |\n|                   |\n|                   |\n| ._._._._._._._._. |\n|     |       |     |\n|     |   .   |     |\n|         |         |\n|_._._._._|_._._._._|'
p2159
a(lp2160
(dp2161
S'ipaddr'
p2162
V192.168.1.33
p2163
sS'port'
p2164
I8800
sS'session_id'
p2165
I85390495
sS'tank_id'
p2166
I1
sa(dp2167
S'score'
p2168
I0
sS'ipaddr'
p2169
V192.168.1.32
p2170
sS'port'
p2171
I8800
sS'session_id'
p2172
I10774951
sS'tank_id'
p2173
I0
saasV5063030
p2174
(lp2175
S'._._._._._._._._._._.\n|                   |\n|   ._._._._._._.   |\n|   |           |   |\n|   |   . ._.       |\n|   |   |   |   .   |\n|       |_. |   |   |\n|   .           |   |\n|   |_._._._._._|   |\n|                   |\n|_._._._._._._._._._|'
p2176
a(lp2177
(dp2178
S'score'
p2179
I0
sS'ipaddr'
p2180
V127.0.0.1
p2181
sS'port'
p2182
I5001
sS'session_id'
p2183
I91819866
sS'tank_id'
p2184
I2
sa(dp2185
S'score'
p2186
I255
sS'ipaddr'
p2187
V127.0.0.1
p2188
sS'port'
p2189
I5002
sS'session_id'
p2190
I4504320
sS'tank_id'
p2191
I2
saasV2422653
p2192
(lp2193
S'._._._._._._._._._._.\n| .               . |\n| |   ._.   ._.   | |\n| |   |       |   | |\n| |               | |\n|_._._._. . ._._._._|\n| ._. | ._| | ._._. |\n|_. |_._. | | | . | |\n| ._| ._._|_._._| | |\n| | . | . | ._._._| |\n|_._|_._|_._._._._._|'
p2194
a(lp2195
(dp2196
S'score'
p2197
I0
sS'ipaddr'
p2198
V127.0.0.1
p2199
sS'port'
p2200
I5002
sS'session_id'
p2201
I50806695
sS'tank_id'
p2202
I2
sa(dp2203
S'score'
p2204
I405
sS'ipaddr'
p2205
V127.0.0.1
p2206
sS'port'
p2207
I5001
sS'session_id'
p2208
I96872024
sS'tank_id'
p2209
I2
saasV41963749
p2210
(lp2211
S'._._._._._._._._._._.\n|       |   . ._._. |\n|_.   ._|_._| | . | |\n| . . . |   . | | | |\n| | | | ._._|_._|_. |\n| |_._| .   | .   . |\n|_.   ._|_._. |_._| |\n| . . . . . | |   | |\n| | |_|_| | |_. . ._|\n| |_. | ._| | ._|_. |\n|_._._._._._._._._._|'
p2212
a(lp2213
(dp2214
S'score'
p2215
I345
sS'ipaddr'
p2216
V127.0.0.1
p2217
sS'port'
p2218
I5001
sS'session_id'
p2219
I30610829
sS'tank_id'
p2220
I2
sa(dp2221
S'score'
p2222
I405
sS'ipaddr'
p2223
V127.0.0.1
p2224
sS'port'
p2225
I5002
sS'session_id'
p2226
I99925832
sS'tank_id'
p2227
I2
saasV11261563
p2228
(lp2229
S'._._._._._._._._._._.\n|   .   .   .   |   |\n| ._|_. |_._|_._._. |\n|   |   |   .   |   |\n|_._| ._._._|_._| ._|\n|   |   |   |   .   |\n| ._._._. ._. ._|_._|\n|   |   |   |   .   |\n|_._| ._|_. |_._| ._|\n|   .   |   |   |   |\n|_._|_._._._|_._._._|'
p2230
a(lp2231
(dp2232
S'ipaddr'
p2233
V127.0.0.1
p2234
sS'port'
p2235
I5001
sS'session_id'
p2236
I33928787
sS'tank_id'
p2237
I1
sa(dp2238
S'ipaddr'
p2239
V127.0.0.1
p2240
sS'port'
p2241
I5002
sS'session_id'
p2242
I88380664
sS'tank_id'
p2243
I2
saasV25370403
p2244
(lp2245
S'._._._._._._._._._._.\n|_. ._. ._. ._. ._. |\n| ._._._. ._._._. ._|\n|_. ._._._. ._._._. |\n| ._. ._. ._. ._. ._|\n|_.   ._._._._.   ._|\n|_. ._._.   ._._. ._|\n| ._._._.   ._._._. |\n|_.   ._._._._.   ._|\n|   ._._.   ._._.   |\n|_._._._._._._._._._|'
p2246
a(lp2247
(dp2248
S'score'
p2249
I390
sS'ipaddr'
p2250
V127.0.0.1
p2251
sS'port'
p2252
I5001
sS'session_id'
p2253
I40046274
sS'tank_id'
p2254
I2
sa(dp2255
S'score'
p2256
I0
sS'ipaddr'
p2257
V127.0.0.1
p2258
sS'port'
p2259
I5002
sS'session_id'
p2260
I76705847
sS'tank_id'
p2261
I2
saasV86034752
p2262
(lp2263
S'._._._._._._._._._._.\n|_. ._. ._. ._. ._. |\n| ._._._. ._._._. ._|\n|_. ._._._. ._._._. |\n| ._. ._. ._. ._. ._|\n|_.   ._._._._.   ._|\n|_. ._._.   ._._. ._|\n| ._._._.   ._._._. |\n|_.   ._._._._.   ._|\n|   ._._.   ._._.   |\n|_._._._._._._._._._|'
p2264
a(lp2265
(dp2266
S'score'
p2267
I0
sS'ipaddr'
p2268
V127.0.0.1
p2269
sS'port'
p2270
I5001
sS'session_id'
p2271
I11429208
sS'tank_id'
p2272
I2
sa(dp2273
S'score'
p2274
I0
sS'ipaddr'
p2275
V127.0.0.1
p2276
sS'port'
p2277
I5002
sS'session_id'
p2278
I70499119
sS'tank_id'
p2279
I2
saasV95631069
p2280
(lp2281
S'._._._._._._._._._._.\n|                   |\n|   ._._._._._._.   |\n|   |           |   |\n|   |   . ._.       |\n|   |   |   |   .   |\n|       |_. |   |   |\n|   .           |   |\n|   |_._._._._._|   |\n|                   |\n|_._._._._._._._._._|'
p2282
a(lp2283
(dp2284
S'score'
p2285
I405
sS'ipaddr'
p2286
V192.168.1.39
p2287
sS'port'
p2288
I8800
sS'session_id'
p2289
I99124067
sS'tank_id'
p2290
I2
sa(dp2291
S'score'
p2292
I0
sS'ipaddr'
p2293
V192.168.1.38
p2294
sS'port'
p2295
I8800
sS'session_id'
p2296
I90374887
sS'tank_id'
p2297
I2
saasV73098229
p2298
(lp2299
S'._._._._._._._._._._.\n| ._._._.   ._._._. |\n| | ._.       ._. | |\n| | |_.       ._| | |\n| |_._._.   ._._._| |\n|                   |\n| ._._._.   ._._._. |\n| |     |   |     | |\n| |   ._|   |_.   | |\n| |_._._.   ._._._| |\n|_._._._._._._._._._|'
p2300
a(lp2301
(dp2302
S'ipaddr'
p2303
V127.0.0.1
p2304
sS'port'
p2305
I5001
sS'session_id'
p2306
I15400224
sS'tank_id'
p2307
I1
sa(dp2308
S'ipaddr'
p2309
V127.0.0.1
p2310
sS'port'
p2311
I5002
sS'session_id'
p2312
I60965504
sS'tank_id'
p2313
I2
saasV62071300
p2314
(lp2315
S'._._._._._._._._._._.\n|   ._._.   ._._.   |\n|     |     |_. |   |\n|     |     |   |   |\n|     |     |   |   |\n|                   |\n|   ._. .   . ._.   |\n|   | | |   |_|     |\n|   | | |   |_.     |\n|   | |_|   | |_.   |\n|_._._._._._._._._._|'
p2316
a(lp2317
(dp2318
S'score'
p2319
I345
sS'ipaddr'
p2320
V127.0.0.1
p2321
sS'port'
p2322
I5001
sS'session_id'
p2323
I57499466
sS'tank_id'
p2324
I2
sa(dp2325
S'score'
p2326
I405
sS'ipaddr'
p2327
V127.0.0.1
p2328
sS'port'
p2329
I5002
sS'session_id'
p2330
I7958551
sS'tank_id'
p2331
I2
saasV69642510
p2332
(lp2333
S'._._._._._._._._._._.\n|   |  _._  |  _._  |\n|   |       |       |\n|   |       |       | \n|   |_.   ._|_.   ._|\n|   |   .   |   .   |\n|_.   ._|_.   ._|   |\n|       |       |   |\n|       |       |   |\n|  _._  |  _._  |   |\n|_._._._|_._._._|_._|'
p2334
a(lp2335
(dp2336
S'score'
p2337
I0
sS'ipaddr'
p2338
V127.0.0.1
p2339
sS'port'
p2340
I5002
sS'session_id'
p2341
I30060233
sS'tank_id'
p2342
I2
sa(dp2343
S'score'
p2344
I0
sS'ipaddr'
p2345
V127.0.0.1
p2346
sS'port'
p2347
I5001
sS'session_id'
p2348
I23379986
sS'tank_id'
p2349
I2
saasV71360820
p2350
(lp2351
S'._._._._._._._._._._.\n| ._._._.   ._._._. |\n| | ._.       ._. | |\n| | |_.       ._| | |\n| |_._._.   ._._._| |\n|                   |\n| ._._._.   ._._._. |\n| |     |   |     | |\n| |   ._|   |_.   | |\n| |_._._.   ._._._| |\n|_._._._._._._._._._|'
p2352
a(lp2353
(dp2354
S'score'
p2355
I0
sS'ipaddr'
p2356
V127.0.0.1
p2357
sS'port'
p2358
I5001
sS'session_id'
p2359
I96110544
sS'tank_id'
p2360
I2
sa(dp2361
S'score'
p2362
I0
sS'ipaddr'
p2363
V127.0.0.1
p2364
sS'port'
p2365
I5002
sS'session_id'
p2366
I76435891
sS'tank_id'
p2367
I2
sa(dp2368
S'score'
p2369
I0
sS'ipaddr'
p2370
V127.0.0.1
p2371
sS'port'
p2372
I5003
sS'session_id'
p2373
I23442181
sS'tank_id'
p2374
I2
saasV18359962
p2375
(lp2376
S'._._._._._._._._._._.\n| ._._._._.     ._. |\n| |   | |     . | | |\n| |_. ._.   ._|_|   |\n| |_. |     | |   . |\n| |     .   |   ._| |\n|     . |     ._| . |\n|   ._|_|   ._| . | |\n| . | |   ._| ._| | |\n| |_|   ._| ._._._| |\n|_._._._._._._._._._|'
p2377
a(lp2378
(dp2379
S'ipaddr'
p2380
V127.0.0.1
p2381
sS'port'
p2382
I5001
sS'session_id'
p2383
I46122886
sS'tank_id'
p2384
I2
sa(dp2385
S'ipaddr'
p2386
V127.0.0.1
p2387
sS'port'
p2388
I5002
sS'session_id'
p2389
I15495962
sS'tank_id'
p2390
I2
saasV82750447
p2391
(lp2392
S'._._._._._._._._._._.\n| . . |_. . |_._. . |\n|_| | | ._. | ._._. |\n| ._|_._| | ._|_. | |\n| |_._._._._| ._._| |\n| . . . ._._._| ._._|\n| | | | | ._. | | . |\n| | | | ._| . |_._| |\n| | | | | | |_._| . |\n| ._| |_. |_._._._| |\n|_._._._._._._._._._|'
p2393
a(lp2394
(dp2395
S'ipaddr'
p2396
V127.0.0.1
p2397
sS'port'
p2398
I5001
sS'session_id'
p2399
I27833762
sS'tank_id'
p2400
I2
sa(dp2401
S'ipaddr'
p2402
V127.0.0.1
p2403
sS'port'
p2404
I5002
sS'session_id'
p2405
I37985192
sS'tank_id'
p2406
I2
saasV11389656
p2407
(lp2408
S'._._._._._._._._._._.\n|   |_. ._._. ._|   |\n|_.   |_.   ._|   ._|\n| |_.   |   |   ._| |\n| . |   ._._.   | . |\n| |               | |\n| | .   ._._.   . | |\n| ._|   .   .   |_. |\n|_|   ._|   |_.   |_|\n|   ._| ._._. |_.   |\n|_._|_._._._._._|_._|'
p2409
a(lp2410
(dp2411
S'score'
p2412
I0
sS'ipaddr'
p2413
V127.0.0.1
p2414
sS'port'
p2415
I5001
sS'session_id'
p2416
I95092982
sS'tank_id'
p2417
I2
sa(dp2418
S'ipaddr'
p2419
V127.0.0.1
p2420
sS'port'
p2421
I5002
sS'session_id'
p2422
I95837977
sS'tank_id'
p2423
I2
saasV21658943
p2424
(lp2425
S'._._._._._._._._._._.\n| ._._._._.     ._. |\n| |   | |     . | | |\n| |_. ._.   ._|_|   |\n| |_. |     | |   . |\n| |     .   |   ._| |\n|     . |     ._| . |\n|   ._|_|   ._| . | |\n| . | |   ._| ._| | |\n| |_|   ._| ._._._| |\n|_._._._._._._._._._|'
p2426
a(lp2427
(dp2428
S'score'
p2429
I0
sS'ipaddr'
p2430
V127.0.0.1
p2431
sS'port'
p2432
I5001
sS'session_id'
p2433
I53686084
sS'tank_id'
p2434
I2
sa(dp2435
S'score'
p2436
I0
sS'ipaddr'
p2437
V127.0.0.1
p2438
sS'port'
p2439
I5002
sS'session_id'
p2440
I23071392
sS'tank_id'
p2441
I2
saasV98438486
p2442
(lp2443
S'._._._._._._._._._._.\n| ._._._.   ._._._. |\n| | ._.       ._. | |\n| | |_.       ._| | |\n| |_._._.   ._._._| |\n|                   |\n| ._._._.   ._._._. |\n| |     |   |     | |\n| |   ._|   |_.   | |\n| |_._._.   ._._._| |\n|_._._._._._._._._._|'
p2444
a(lp2445
(dp2446
S'score'
p2447
I0
sS'ipaddr'
p2448
V127.0.0.1
p2449
sS'port'
p2450
I5001
sS'session_id'
p2451
I34290418
sS'tank_id'
p2452
I2
sa(dp2453
S'score'
p2454
I0
sS'ipaddr'
p2455
V127.0.0.1
p2456
sS'port'
p2457
I5002
sS'session_id'
p2458
I32467188
sS'tank_id'
p2459
I2
saasV99487140
p2460
(lp2461
S'._._._._._._._._._._.\n|   .   .   .   |   |\n| ._|_. |_._|_._._. |\n|   |   |   .   |   |\n|_._| ._._._|_._| ._|\n|   |   |   |   .   |\n| ._._._. ._. ._|_._|\n|   |   |   |   .   |\n|_._| ._|_. |_._| ._|\n|   .   |   |   |   |\n|_._|_._._._|_._._._|'
p2462
a(lp2463
(dp2464
S'ipaddr'
p2465
V127.0.0.1
p2466
sS'port'
p2467
I5001
sS'session_id'
p2468
I51616513
sS'tank_id'
p2469
I2
sa(dp2470
S'ipaddr'
p2471
V127.0.0.1
p2472
sS'port'
p2473
I5002
sS'session_id'
p2474
I29088650
sS'tank_id'
p2475
I2
saasV87563894
p2476
(lp2477
S'._._._._._._._._._._.\n|                   |\n| ._. ._.   ._. ._. |\n| | | | |   | | | | |\n|                   |\n|                   |\n| ._._._._._._._._. |\n|     |       |     |\n|     |   .   |     |\n|         |         |\n|_._._._._|_._._._._|'
p2478
a(lp2479
(dp2480
S'ipaddr'
p2481
V127.0.0.1
p2482
sS'port'
p2483
I5001
sS'session_id'
p2484
I65833565
sS'tank_id'
p2485
I1
sa(dp2486
S'ipaddr'
p2487
V127.0.0.1
p2488
sS'port'
p2489
I5002
sS'session_id'
p2490
I8614405
sS'tank_id'
p2491
I2
saasV45757302
p2492
(lp2493
S'._._._._._._._._._._.\n| ._._._._.     ._. |\n| |   | |     . | | |\n| |_. ._.   ._|_|   |\n| |_. |     | |   . |\n| |     .   |   ._| |\n|     . |     ._| . |\n|   ._|_|   ._| . | |\n| . | |   ._| ._| | |\n| |_|   ._| ._._._| |\n|_._._._._._._._._._|'
p2494
a(lp2495
(dp2496
S'score'
p2497
I-1
sS'ipaddr'
p2498
V127.0.0.1
p2499
sS'port'
p2500
I5001
sS'session_id'
p2501
I30827230
sS'tank_id'
p2502
I2
sa(dp2503
S'score'
p2504
I-1
sS'ipaddr'
p2505
V127.0.0.1
p2506
sS'port'
p2507
I5002
sS'session_id'
p2508
I74893564
sS'tank_id'
p2509
I2
saasV85635162
p2510
(lp2511
S'._._._._._._._._._._.\n|                   |\n|   ._._._._._._.   |\n|   |           |   |\n|   |   . ._.       |\n|   |   |   |   .   |\n|       |_. |   |   |\n|   .           |   |\n|   |_._._._._._|   |\n|                   |\n|_._._._._._._._._._|'
p2512
a(lp2513
(dp2514
S'ipaddr'
p2515
V127.0.0.1
p2516
sS'port'
p2517
I5001
sS'session_id'
p2518
I71377182
sS'tank_id'
p2519
I1
sa(dp2520
S'ipaddr'
p2521
V127.0.0.1
p2522
sS'port'
p2523
I5002
sS'session_id'
p2524
I47304751
sS'tank_id'
p2525
I2
saasV95000070
p2526
(lp2527
S'._._._._._._._._._._.\n| . . ._.   |     . |\n|_| |       | ._._| |\n| ._| ._.   ._|   | |\n| ._._._._._| . ._| |\n| . | ._._._._| . | |\n| | | |   .     | . |\n| | | |   |   ._. | |\n| | | |   |   ._|   |\n| ._| |_. |_._._._. |\n|_._._._._._._._._._|'
p2528
a(lp2529
(dp2530
S'score'
p2531
I-1
sS'ipaddr'
p2532
V127.0.0.1
p2533
sS'port'
p2534
I5001
sS'session_id'
p2535
I43970456
sS'tank_id'
p2536
I2
sa(dp2537
S'score'
p2538
I0
sS'ipaddr'
p2539
V127.0.0.1
p2540
sS'port'
p2541
I5002
sS'session_id'
p2542
I15812964
sS'tank_id'
p2543
I2
saasV10988216
p2544
(lp2545
S'._._._._._._._._._._.\n| ._._._.   ._._._. |\n| | ._.       ._. | |\n| | |_.       ._| | |\n| |_._._.   ._._._| |\n|                   |\n| ._._._.   ._._._. |\n| |     |   |     | |\n| |   ._|   |_.   | |\n| |_._._.   ._._._| |\n|_._._._._._._._._._|'
p2546
a(lp2547
(dp2548
S'score'
p2549
I150
sS'ipaddr'
p2550
V192.168.1.32
p2551
sS'port'
p2552
I8800
sS'session_id'
p2553
I53481003
sS'tank_id'
p2554
I1
sa(dp2555
S'score'
p2556
I195
sS'ipaddr'
p2557
V192.168.1.33
p2558
sS'port'
p2559
I8800
sS'session_id'
p2560
I16524100
sS'tank_id'
p2561
I2
saasV1359953
p2562
(lp2563
S'._._._._._._._._._._.\n| . | ._._._._. | . |\n| | ._._._._._._. | |\n| | ._._. . ._._. | |\n|_| |   . | .   | |_|\n| ._| ._| | |_. |_. |\n|_._._._. | ._._._._|\n|_. . |  ._.  | ._. |\n| ._| |  ._.  | | | |\n| | . |_.   ._|     |\n|_._|_._._._._._|_|_|'
p2564
a(lp2565
(dp2566
S'score'
p2567
I-1
sS'ipaddr'
p2568
V127.0.0.1
p2569
sS'port'
p2570
I5001
sS'session_id'
p2571
I16658706
sS'tank_id'
p2572
I2
sa(dp2573
S'score'
p2574
I-1
sS'ipaddr'
p2575
V127.0.0.1
p2576
sS'port'
p2577
I5002
sS'session_id'
p2578
I11077841
sS'tank_id'
p2579
I2
saasV63951313
p2580
(lp2581
S'._._._._._._._._._._.\n|   .   .   .   |   |\n| ._|_. |_._|_._._. |\n|   |   |   .   |   |\n|_._| ._._._|_._| ._|\n|   |   |   |   .   |\n| ._._._. ._. ._|_._|\n|   |   |   |   .   |\n|_._| ._|_. |_._| ._|\n|   .   |   |   |   |\n|_._|_._._._|_._._._|'
p2582
a(lp2583
(dp2584
S'ipaddr'
p2585
V127.0.0.1
p2586
sS'port'
p2587
I5002
sS'session_id'
p2588
I60269954
sS'tank_id'
p2589
I1
sa(dp2590
S'ipaddr'
p2591
V127.0.0.1
p2592
sS'port'
p2593
I5001
sS'session_id'
p2594
I32434879
sS'tank_id'
p2595
I2
saasV42291226
p2596
(lp2597
S'._._._._._._._._._._.\n| ._. ._. | ._. ._. |\n| | ._. | | |     | |\n|   |_. |_.         |\n| |_._.   | |_. ._| |\n|_._. |_._|_._. ._._|\n| ._._._._|         |\n| | . ._. |         |\n| | | | | .         |\n|_._|_. | |         |\n|_._._._._|_._._._._|'
p2598
a(lp2599
(dp2600
S'score'
p2601
I405
sS'ipaddr'
p2602
V127.0.0.1
p2603
sS'port'
p2604
I5001
sS'session_id'
p2605
I19768221
sS'tank_id'
p2606
I2
sa(dp2607
S'score'
p2608
I0
sS'ipaddr'
p2609
V127.0.0.1
p2610
sS'port'
p2611
I5002
sS'session_id'
p2612
I20538359
sS'tank_id'
p2613
I2
saasV65458789
p2614
(lp2615
S'._._._._._._._._._._.\n| . | ._._._._. | . |\n| | ._._._._._._. | |\n| | ._._. . ._._. | |\n|_| |   . | .   | |_|\n| ._| ._| | |_. |_. |\n|_._._._. | ._._._._|\n|_. . |  ._.  | ._. |\n| ._| |  ._.  | | | |\n| | . |_.   ._|     |\n|_._|_._._._._._|_|_|'
p2616
a(lp2617
(dp2618
S'score'
p2619
I-1
sS'ipaddr'
p2620
V127.0.0.1
p2621
sS'port'
p2622
I5001
sS'session_id'
p2623
I87523510
sS'tank_id'
p2624
I2
sa(dp2625
S'score'
p2626
I-1
sS'ipaddr'
p2627
V127.0.0.1
p2628
sS'port'
p2629
I5003
sS'session_id'
p2630
I55080468
sS'tank_id'
p2631
I2
sa(dp2632
S'score'
p2633
I-1
sS'ipaddr'
p2634
V127.0.0.1
p2635
sS'port'
p2636
I5002
sS'session_id'
p2637
I92537428
sS'tank_id'
p2638
I2
saasV15437634
p2639
(lp2640
S'._._._._._._._._._._.\n| .               . |\n| |   ._.   ._.   | |\n| |   |       |   | |\n| |               | |\n|_._._._. . ._._._._|\n| ._. | ._| | ._._. |\n|_. |_._. | | | . | |\n| ._| ._._|_._._| | |\n| | . | . | ._._._| |\n|_._|_._|_._._._._._|'
p2641
a(lp2642
(dp2643
S'score'
p2644
I-1
sS'ipaddr'
p2645
V127.0.0.1
p2646
sS'port'
p2647
I5001
sS'session_id'
p2648
I90569285
sS'tank_id'
p2649
I2
sa(dp2650
S'score'
p2651
I-1
sS'ipaddr'
p2652
V127.0.0.1
p2653
sS'port'
p2654
I5002
sS'session_id'
p2655
I74525618
sS'tank_id'
p2656
I2
saasV45658709
p2657
(lp2658
S'._._._._._._._._._._.\n|   | | | | | | |   |\n|_.               ._|\n|_.     ._._.     ._|\n|_.   .   |   .   ._|\n|_.   |_.   ._|   ._|\n|_.   |   .   |   ._|\n|_.     ._|_.     ._|\n|_.               ._|\n|   . . . . . . .   |\n|_._|_|_|_|_|_|_|_._|'
p2659
a(lp2660
(dp2661
S'score'
p2662
I0
sS'ipaddr'
p2663
V127.0.0.1
p2664
sS'port'
p2665
I5001
sS'session_id'
p2666
I48093282
sS'tank_id'
p2667
I2
sa(dp2668
S'score'
p2669
I405
sS'ipaddr'
p2670
V127.0.0.1
p2671
sS'port'
p2672
I5002
sS'session_id'
p2673
I63590130
sS'tank_id'
p2674
I2
saassS'wait_for_start'
p2675
I01
sS'start_time'
p2676
F1412167500.604124
sS'waitlist'
p2677
g310
sS'battle_id'
p2678
I64536401
s.