(dp0
S'battlelist'
p1
(dp2
V24543520
p3
(lp4
S'._._._._._._._._._._.\n| . . .   . .     . |\n|_| | | ._| | ._._| |\n| ._|_._| | ._|_. | |\n| |_._._._._| ._._| |\n| . | ._._._._| ._._|\n| | | | | ._. | | . |\n| | | | ._| . |_._| |\n|_| | | | | |_._| ._|\n| ._| |_. |_._._._| |\n|_._._|_._._._._._._|'
p5
a(lp6
(dp7
S'ipaddr'
p8
V127.0.0.1
p9
sS'port'
p10
I5001
sS'session_id'
p11
I73241091
sS'tank_id'
p12
I0
sa(dp13
S'ipaddr'
p14
V127.0.0.1
p15
sS'port'
p16
I5002
sS'session_id'
p17
I91295205
sS'tank_id'
p18
I0
saasV36045301
p19
(lp20
S'._._._._._._._._._._.\n| ._.   ._. | ._. ._|\n|_. |     | |_. |_. |\n| ._|   ._._._._._. |\n| ._.   ._|  _. ._| |\n| . |   |     | | ._|\n| | |_.  _. | |_._| |\n| |_._.   |_. |_. . |\n| ._. | .   |_. |_| |\n| . | ._|_. ._| | . |\n|_|_._._._._._._._|_|'
p21
a(lp22
(dp23
S'ipaddr'
p24
V127.0.0.1
p25
sS'port'
p26
I5002
sS'session_id'
p27
I821214
sS'tank_id'
p28
I1
sa(dp29
S'ipaddr'
p30
V127.0.0.1
p31
sS'port'
p32
I5001
sS'session_id'
p33
I44703890
sS'tank_id'
p34
I0
saasV52344298
p35
(lp36
S'._._._._._._._._._._.\n| ._.   ._. | ._. ._|\n|_. |     | |_. |_. |\n| ._|   ._._._._._. |\n| ._.   ._|  _. ._| |\n| . |   |     | | ._|\n| | |_.  _. | |_._| |\n| |_._.   |_. |_. . |\n| ._. | .   |_. |_| |\n| . | ._|_. ._| | . |\n|_|_._._._._._._._|_|'
p37
a(lp38
(dp39
S'ipaddr'
p40
V127.0.0.1
p41
sS'port'
p42
I5001
sS'session_id'
p43
I9937479
sS'tank_id'
p44
I1
sa(dp45
S'ipaddr'
p46
V127.0.0.1
p47
sS'port'
p48
I5002
sS'session_id'
p49
I55564186
sS'tank_id'
p50
I0
saasV13588284
p51
(lp52
S'._._._._._._._._._._.\n| ._.   ._. | ._. ._|\n|_. |     | |_. |_. |\n| ._|   ._|_._._._. |\n| |_.   ._|  _. ._| |\n| . |   |     | | ._|\n| | |_.  _. | |_._| |\n| |_._.   |_. |_. . |\n| ._. | .   |_. |_| |\n| . | ._|_. ._| | . |\n|_|_._._._._._._._|_|'
p53
a(lp54
(dp55
S'ipaddr'
p56
V127.0.0.1
p57
sS'port'
p58
I5001
sS'session_id'
p59
I91429414
sS'tank_id'
p60
I1
sa(dp61
S'ipaddr'
p62
V127.0.0.1
p63
sS'port'
p64
I5002
sS'session_id'
p65
I90786991
sS'tank_id'
p66
I5
saasV76045252
p67
(lp68
S'._._._._._._._._._._.\n| ._._| ._._. . | . |\n| . | ._| ._| | |_| |\n|_| | | . | ._| | . |\n| ._|_._| | |_. ._|_|\n| ._. ._| |_. |_|_. |\n| | | | ._| |_. ._| |\n| | |_._| ._. |_._._|\n|_._._._._| |_._._. |\n| ._| . | . | ._._._|\n|_._._|_._|_._._._._|\n'
p69
a(lp70
(dp71
S'ipaddr'
p72
V127.0.0.1
p73
sS'port'
p74
I5001
sS'session_id'
p75
I72025992
sS'tank_id'
p76
I0
sa(dp77
S'ipaddr'
p78
V127.0.0.1
p79
sS'port'
p80
I5002
sS'session_id'
p81
I40080904
sS'tank_id'
p82
I0
saasV24611779
p83
(lp84
S'._._._._._._._._._._.\n| ._.   ._. | ._. ._|\n|_. |     | |_. |_. |\n| ._|   ._._._._._. |\n| ._.   ._|  _. ._| |\n| . |   |     | | ._|\n| | |_.  _. | |_._| |\n| |_._.   |_. |_. . |\n| ._. | .   |_. |_| |\n| . | ._|_. ._| | . |\n|_|_._._._._._._._|_|'
p85
a(lp86
(dp87
S'ipaddr'
p88
V127.0.0.1
p89
sS'port'
p90
I5001
sS'session_id'
p91
I58574311
sS'tank_id'
p92
I0
sa(dp93
S'ipaddr'
p94
V127.0.0.1
p95
sS'port'
p96
I5002
sS'session_id'
p97
I81298936
sS'tank_id'
p98
I2
saasV38926144
p99
(lp100
S'._._._._._._._._._._.\n| ._.   ._. | ._. ._|\n|_. |     | |_. |_. |\n| ._|   ._._._._._. |\n| ._.   ._|  _. ._| |\n| . |   |     | | ._|\n| | |_.  _. | |_._| |\n| |_._.   |_. |_. . |\n| ._. | .   |_. |_| |\n| . | ._|_. ._| | . |\n|_|_._._._._._._._|_|'
p101
a(lp102
(dp103
S'ipaddr'
p104
V127.0.0.1
p105
sS'port'
p106
I5001
sS'session_id'
p107
I7345496
sS'tank_id'
p108
I0
sa(dp109
S'ipaddr'
p110
V127.0.0.1
p111
sS'port'
p112
I5002
sS'session_id'
p113
I43404464
sS'tank_id'
p114
I1
saasV94094314
p115
(lp116
S'._._._._._._._._._._.\n| .   .   . |_._._. |\n|_|_ _| ._| . ._._| |\n| ._ _._|   |_|_.   |\n||_. _._.__._ ._._. |\n|  |._.. ._._  . _._|\n|    |  | ._.  |  . |\n|    |  |   |  _ .| |\n|      .  .  |_._|._|\n|      |  |_._._._| |\n|_._. __._._._._._._|'
p117
a(lp118
(dp119
S'ipaddr'
p120
V127.0.0.1
p121
sS'port'
p122
I5002
sS'session_id'
p123
I74809507
sS'tank_id'
p124
I0
sa(dp125
S'ipaddr'
p126
V127.0.0.1
p127
sS'port'
p128
I5001
sS'session_id'
p129
I10486703
sS'tank_id'
p130
I0
saasV10335265
p131
(lp132
S'._._._._._._._._._._.\n| . . .   . .     . |\n|_| | | ._| | ._._| |\n| ._|_._| | ._|_. | |\n| |_._._._._| ._._| |\n| . | ._._._._| ._._|\n| | | | | ._. | | . |\n| | | | ._| . |_._| |\n|_| | | | | |_._| ._|\n| ._| |_. |_._._._| |\n|_._._|_._._._._._._|'
p133
a(lp134
(dp135
S'ipaddr'
p136
V127.0.0.1
p137
sS'port'
p138
I5001
sS'session_id'
p139
I21504978
sS'tank_id'
p140
I0
sa(dp141
S'ipaddr'
p142
V127.0.0.1
p143
sS'port'
p144
I5002
sS'session_id'
p145
I64515329
sS'tank_id'
p146
I0
saasV14278359
p147
(lp148
S'._._._._._._._._._._.\n|                   |\n| . |_._._|_._| ._| |\n| |_._._._._._._._| |\n|_._. | ._._._| . | |\n| ._._|_. | . | | | |\n| |_._. . | |_._| | |\n|_._._._| |_._. | ._|\n| . | . |_. | ._|_| |\n|                   |\n|_._._._._._._._._._|'
p149
a(lp150
(dp151
S'ipaddr'
p152
V127.0.0.1
p153
sS'port'
p154
I5002
sS'session_id'
p155
I68152313
sS'tank_id'
p156
I0
sa(dp157
S'ipaddr'
p158
V127.0.0.1
p159
sS'port'
p160
I5001
sS'session_id'
p161
I97440030
sS'tank_id'
p162
I0
saasV62431974
p163
(lp164
S'._._._._._._._._._._.\n|_. ._._._. | ._. . |\n| ._|_. . | |_._| |_|\n|_._. | |_|_._. | . |\n| | ._| ._. . | |_| |\n| |_. | | | | |_._. |\n| ._| |_| |_|_._. | |\n|_. |_. |_. | ._._| |\n| ._._|_._._| ._._._|\n| ._. ._| . |_._. | |\n|_._|_._._|_._._._._|\n'
p165
a(lp166
(dp167
S'ipaddr'
p168
V127.0.0.1
p169
sS'port'
p170
I5001
sS'session_id'
p171
I75991677
sS'tank_id'
p172
I0
sa(dp173
S'ipaddr'
p174
V127.0.0.1
p175
sS'port'
p176
I5002
sS'session_id'
p177
I40392102
sS'tank_id'
p178
I0
saasV58184193
p179
(lp180
S'._._._._._._._._._._.\n| . .     . .     . |\n|_| | | ._| | ._._| |\n| ._|_._| | ._|_. | |\n| |_._._._._| ._._| |\n| . | ._._._._| ._._|\n| | | | | ._. | | . |\n| | | | ._| . |_._| |\n|_| | | | | |_._| ._|\n| ._| |_. |_._._._| |\n|_._._|_._._._._._._|'
p181
a(lp182
(dp183
S'ipaddr'
p184
V127.0.0.1
p185
sS'port'
p186
I5001
sS'session_id'
p187
I16827713
sS'tank_id'
p188
I0
sa(dp189
S'ipaddr'
p190
V127.0.0.1
p191
sS'port'
p192
I5002
sS'session_id'
p193
I34248964
sS'tank_id'
p194
I0
saasV68190085
p195
(lp196
S'._._._._._._._._._._.\n| . . .   . .     . |\n|_| | | ._| | ._._| |\n| ._|_._| | ._|_. | |\n| |_._._._._| ._._| |\n| . | ._._._._| ._._|\n| | | | | ._. | | . |\n| | | | ._| . |_._| |\n|_| | | | | |_._| ._|\n| ._| |_. |_._._._| |\n|_._._|_._._._._._._|'
p197
a(lp198
(dp199
S'ipaddr'
p200
V127.0.0.1
p201
sS'port'
p202
I5001
sS'session_id'
p203
I69809410
sS'tank_id'
p204
I0
sa(dp205
S'ipaddr'
p206
V127.0.0.1
p207
sS'port'
p208
I5002
sS'session_id'
p209
I23145689
sS'tank_id'
p210
I0
saasV8417364
p211
(lp212
S'._._._._._._._._._._.\n| .   .   . |_._._. |\n|_|_ _| ._| . ._._| |\n| ._ _._|   |_|_.   |\n||_. _._.__._ ._._. |\n|  |._.. ._._  . _._|\n|    |  | ._.  |  . |\n|    |  |   |  _ .| |\n|      .  .  |_._|._|\n|      |  |_._._._| |\n|_._. __._._._._._._|'
p213
a(lp214
(dp215
S'ipaddr'
p216
V127.0.0.1
p217
sS'port'
p218
I5001
sS'session_id'
p219
I7712059
sS'tank_id'
p220
I0
sa(dp221
S'ipaddr'
p222
V127.0.0.1
p223
sS'port'
p224
I5002
sS'session_id'
p225
I64637965
sS'tank_id'
p226
I0
saasV53258296
p227
(lp228
S'._._._._._._._._._._.\n| ._.   ._. | ._. ._|\n|_. |     | |_. |_. |\n| ._|   ._|_._._._. |\n| |_.   ._|  _. ._| |\n| . |   |     | | ._|\n| | |_.  _. | |_._| |\n| |_._.   |_. |_. . |\n| ._. | .   |_. |_| |\n| . | ._|_. ._| | . |\n|_|_._._._._._._._|_|'
p229
a(lp230
(dp231
S'ipaddr'
p232
V127.0.0.1
p233
sS'port'
p234
I5001
sS'session_id'
p235
I56075055
sS'tank_id'
p236
I5
sa(dp237
S'ipaddr'
p238
V127.0.0.1
p239
sS'port'
p240
I5002
sS'session_id'
p241
I36503904
sS'tank_id'
p242
I0
saasV31291558
p243
(lp244
S'._._._._._._._._._._.\n| . . .   . .     . |\n|_| | | ._| | ._._| |\n| ._|_._| | ._|_. | |\n| |_._._._._| ._._| |\n| . | ._._._._| ._._|\n| | | | | ._. | | . |\n| | | | ._| . |_._| |\n|_| | | | | |_._| ._|\n| ._| |_. |_._._._| |\n|_._._|_._._._._._._|'
p245
a(lp246
(dp247
S'ipaddr'
p248
V127.0.0.1
p249
sS'port'
p250
I5001
sS'session_id'
p251
I6389048
sS'tank_id'
p252
I0
sa(dp253
S'ipaddr'
p254
V127.0.0.1
p255
sS'port'
p256
I5002
sS'session_id'
p257
I85998007
sS'tank_id'
p258
I0
saasV13123546
p259
(lp260
S'._._._._._._._._._._.\n| ._.   ._. | ._. ._|\n|_. |     | |_. |_. |\n| ._|   ._._._._._. |\n| ._.   ._|  _. ._| |\n| . |   |     | | ._|\n| | |_.  _. | |_._| |\n| |_._.   |_. |_. . |\n| ._. | .   |_. |_| |\n| . | ._|_. ._| | . |\n|_|_._._._._._._._|_|'
p261
a(lp262
(dp263
S'ipaddr'
p264
V127.0.0.1
p265
sS'port'
p266
I5001
sS'session_id'
p267
I81858289
sS'tank_id'
p268
I0
sa(dp269
S'ipaddr'
p270
V127.0.0.1
p271
sS'port'
p272
I5002
sS'session_id'
p273
I74181725
sS'tank_id'
p274
I2
saasV0
p275
(lp276
S'._._._._._._._._._._.\n| . | | ._. . | . | |\n| |_. | | | |_._| | |\n|_. | | | |_. |_._. |\n| . |_|_._. |_. | ._|\n| |_| ._. | | | |_. |\n| ._._| . |_. | | | |\n|_. | | |_._| | |_. |\n| ._| |_._._._| . |_|\n| | ._._._| . |_|_. |\n|_._|_._._._|_._._._|\n'
p277
a(lp278
(dp279
S'ipaddr'
p280
V127.0.0.1
p281
sS'port'
p282
I5001
sS'session_id'
p283
I68046511
sS'tank_id'
p284
I0
sa(dp285
S'ipaddr'
p286
V127.0.0.1
p287
sS'port'
p288
I5002
sS'session_id'
p289
I67055166
sS'tank_id'
p290
I0
saasV12790573
p291
(lp292
S'._._._._._._._._._._.\n| ._.   ._. | ._. ._|\n|_. |     | |_. |_. |\n| ._|   ._|_._._._. |\n| |_.   ._|  _. ._| |\n| . |   |     | | ._|\n| | |_.  _. | |_._| |\n| |_._.   |_. |_. . |\n| ._. | .   |_. |_| |\n| . | ._|_. ._| | . |\n|_|_._._._._._._._|_|'
p293
a(lp294
(dp295
S'ipaddr'
p296
V127.0.0.1
p297
sS'port'
p298
I5001
sS'session_id'
p299
I4738133
sS'tank_id'
p300
I1
sa(dp301
S'ipaddr'
p302
V127.0.0.1
p303
sS'port'
p304
I5002
sS'session_id'
p305
I9763452
sS'tank_id'
p306
I3
saasV8386718
p307
(lp308
S'._._._._._._._._._._.\n| ._.   ._. | ._. ._|\n|_. |     | |_. |_. |\n| ._|   ._|_._._._. |\n| |_.   ._|  _. ._| |\n| . |   |     | | ._|\n| | |_.  _. | |_._| |\n| |_._.   |_. |_. . |\n| ._. | .   |_. |_| |\n| . | ._|_. ._| | . |\n|_|_._._._._._._._|_|'
p309
a(lp310
(dp311
S'ipaddr'
p312
V127.0.0.1
p313
sS'port'
p314
I5001
sS'session_id'
p315
I48937898
sS'tank_id'
p316
I4
sa(dp317
S'ipaddr'
p318
V127.0.0.1
p319
sS'port'
p320
I5002
sS'session_id'
p321
I65203761
sS'tank_id'
p322
I1
saasV58095215
p323
(lp324
S'._._._._._._._._._._.\n|         |   .      |\n|     |       |     |\n| _ . . .   . .  ._ |\n|       |   |       |\n|       |   |       |\n|       |   |       |\n| _ . . .   . .  ._ |\n|     |   .   |     |\n|     .   |   .     |\n|_._._._._._._._._._|'
p325
a(lp326
(dp327
S'ipaddr'
p328
V127.0.0.1
p329
sS'port'
p330
I5002
sS'session_id'
p331
I36681294
sS'tank_id'
p332
I0
sa(dp333
S'ipaddr'
p334
V127.0.0.1
p335
sS'port'
p336
I5001
sS'session_id'
p337
I85796214
sS'tank_id'
p338
I0
saasV89753897
p339
(lp340
S'._._._._._._._._._._.\n| ._.   ._. | ._. ._|\n|_. |     | |_. |_. |\n| ._|   ._|_._._._. |\n| |_.   ._|  _. ._| |\n| . |   |     | | ._|\n| | |_.  _. | |_._| |\n| |_._.   |_. |_. . |\n| ._. | .   |_. |_| |\n| . | ._|_. ._| | . |\n|_|_._._._._._._._|_|'
p341
a(lp342
(dp343
S'ipaddr'
p344
V127.0.0.1
p345
sS'port'
p346
I5001
sS'session_id'
p347
I69602110
sS'tank_id'
p348
I1
sa(dp349
S'ipaddr'
p350
V127.0.0.1
p351
sS'port'
p352
I5002
sS'session_id'
p353
I65730382
sS'tank_id'
p354
I3
saasV58085527
p355
(lp356
S'._._._._._._._._._._.\n| . .     . .     . |\n|_| | | ._| | ._._| |\n| ._|_._| | ._|_. | |\n| |_._._._._| ._._| |\n| . | ._._._._| ._._|\n| | | | | ._. | | . |\n| | | | ._| . |_._| |\n|_| | | | | |_._| ._|\n| ._| |_. |_._._._| |\n|_._._|_._._._._._._|'
p357
a(lp358
(dp359
S'ipaddr'
p360
V127.0.0.1
p361
sS'port'
p362
I5001
sS'session_id'
p363
I67167963
sS'tank_id'
p364
I0
sa(dp365
S'ipaddr'
p366
V127.0.0.1
p367
sS'port'
p368
I5002
sS'session_id'
p369
I25601453
sS'tank_id'
p370
I0
saasV45690502
p371
(lp372
S'._._._._._._._._._._.\n| . . .   . .     . |\n|_| | | ._| | ._._| |\n| ._|_._| | ._|_. | |\n| |_._._._._| ._._| |\n| . | ._._._._| ._._|\n| | | | | ._. | | . |\n| | | | ._| . |_._| |\n|_| | | | | |_._| ._|\n| ._| |_. |_._._._| |\n|_._._|_._._._._._._|'
p373
a(lp374
(dp375
S'ipaddr'
p376
V127.0.0.1
p377
sS'port'
p378
I5001
sS'session_id'
p379
I25197793
sS'tank_id'
p380
I0
sa(dp381
S'ipaddr'
p382
V127.0.0.1
p383
sS'port'
p384
I5002
sS'session_id'
p385
I18376396
sS'tank_id'
p386
I0
saasV42930715
p387
(lp388
S'._._._._._._._._._._.\n| . . .   . .     . |\n|_| | | ._| | ._._| |\n| ._|_._| | ._|_. | |\n| |_._._._._| ._._| |\n| . | ._._._._| ._._|\n| | | | | ._. | | . |\n| | | | ._| . |_._| |\n|_| | | | | |_._| ._|\n| ._| |_. |_._._._| |\n|_._._|_._._._._._._|'
p389
a(lp390
(dp391
S'ipaddr'
p392
V127.0.0.1
p393
sS'port'
p394
I5002
sS'session_id'
p395
I86493983
sS'tank_id'
p396
I0
sa(dp397
S'ipaddr'
p398
V127.0.0.1
p399
sS'port'
p400
I5001
sS'session_id'
p401
I10866480
sS'tank_id'
p402
I0
saasV44491752
p403
(lp404
S'._._._._._._._._._._.\n|_. ._. | ._. |_._. |\n| ._|_._._|_._. | . |\n|_._._._. . |_._._| |\n| ._._. | |_. |_._. |\n| | . | |_| . | . |_|\n| | |_| | ._|_| |_._|\n| |_._._. | ._._| ._|\n| . | . |_|_._. |_. |\n| | | | | . | ._| . |\n|_|_._|_._|_._._._|_|\n'
p405
a(lp406
(dp407
S'ipaddr'
p408
V127.0.0.1
p409
sS'port'
p410
I5001
sS'session_id'
p411
I77234844
sS'tank_id'
p412
I0
sa(dp413
S'ipaddr'
p414
V127.0.0.1
p415
sS'port'
p416
I5002
sS'session_id'
p417
I98313574
sS'tank_id'
p418
I0
saasV57214052
p419
(lp420
S'._._._._._._._._._._.\n| ._.   ._. | ._. ._|\n|_. |     | |_. |_. |\n| ._|   ._|_._._._. |\n| |_.   ._|  _. ._| |\n| . |   |     | | ._|\n| | |_.  _. | |_._| |\n| |_._.   |_. |_. . |\n| ._. | .   |_. |_| |\n| . | ._|_. ._| | . |\n|_|_._._._._._._._|_|'
p421
a(lp422
(dp423
S'ipaddr'
p424
V127.0.0.1
p425
sS'port'
p426
I5001
sS'session_id'
p427
I17931679
sS'tank_id'
p428
I0
sa(dp429
S'ipaddr'
p430
V127.0.0.1
p431
sS'port'
p432
I5002
sS'session_id'
p433
I44248564
sS'tank_id'
p434
I5
sa(dp435
S'ipaddr'
p436
V127.0.0.1
p437
sS'port'
p438
I5004
sS'session_id'
p439
I88896982
sS'tank_id'
p440
I4
saasV59018094
p441
(lp442
S'._._._._._._._._._._.\n| ._.   ._. | ._. ._|\n|_. |     | |_. |_. |\n| ._|   ._|_._._._. |\n| |_.   ._|  _. ._| |\n| . |   |     | | ._|\n| | |_.  _. | |_._| |\n| |_._.   |_. |_. . |\n| ._. | .   |_. |_| |\n| . | ._|_. ._| | . |\n|_|_._._._._._._._|_|'
p443
a(lp444
(dp445
S'ipaddr'
p446
V127.0.0.1
p447
sS'port'
p448
I5003
sS'session_id'
p449
I9067035
sS'tank_id'
p450
I0
sa(dp451
S'ipaddr'
p452
V127.0.0.1
p453
sS'port'
p454
I5002
sS'session_id'
p455
I89476080
sS'tank_id'
p456
I1
sa(dp457
S'ipaddr'
p458
V127.0.0.1
p459
sS'port'
p460
I5001
sS'session_id'
p461
I33321576
sS'tank_id'
p462
I5
saasV12100336
p463
(lp464
S'._._._._._._._._._._.\n| . .     . .     . |\n|_| | | ._| | ._._| |\n| ._|_._| | ._|_. | |\n| |_._._._._| ._._| |\n| . | ._._._._| ._._|\n| | | | | ._. | | . |\n| | | | ._| . |_._| |\n|_| | | | | |_._| ._|\n| ._| |_. |_._._._| |\n|_._._|_._._._._._._|'
p465
a(lp466
(dp467
S'ipaddr'
p468
V127.0.0.1
p469
sS'port'
p470
I5001
sS'session_id'
p471
I85338835
sS'tank_id'
p472
I0
sa(dp473
S'ipaddr'
p474
V127.0.0.1
p475
sS'port'
p476
I5002
sS'session_id'
p477
I9847543
sS'tank_id'
p478
I0
saasV37017787
p479
(lp480
S'._._._._._._._._._._.\n| ._.   ._. | ._. ._|\n|_. |     | |_. |_. |\n| ._|   ._|_._._._. |\n| |_.   ._|  _. ._| |\n| . |   |     | | ._|\n| | |_.  _. | |_._| |\n| |_._.   |_. |_. . |\n| ._. | .   |_. |_| |\n| . | ._|_. ._| | . |\n|_|_._._._._._._._|_|'
p481
a(lp482
(dp483
S'ipaddr'
p484
V127.0.0.1
p485
sS'port'
p486
I5001
sS'session_id'
p487
I76886106
sS'tank_id'
p488
I0
sa(dp489
S'ipaddr'
p490
V127.0.0.1
p491
sS'port'
p492
I5002
sS'session_id'
p493
I38367517
sS'tank_id'
p494
I2
sa(dp495
S'ipaddr'
p496
V127.0.0.1
p497
sS'port'
p498
I5003
sS'session_id'
p499
I66963569
sS'tank_id'
p500
I3
saasV58040321
p501
(lp502
S'._._._._._._._._._._.\n| ._.   ._. | ._. ._|\n|_. |     | |_. |_. |\n| ._|   ._|_._._._. |\n| |_.   ._|  _. ._| |\n| . |   |     | | ._|\n| | |_.  _. | |_._| |\n| |_._.   |_. |_. . |\n| ._. | .   |_. |_| |\n| . | ._|_. ._| | . |\n|_|_._._._._._._._|_|'
p503
a(lp504
(dp505
S'ipaddr'
p506
V127.0.0.1
p507
sS'port'
p508
I5001
sS'session_id'
p509
I76836152
sS'tank_id'
p510
I0
sa(dp511
S'ipaddr'
p512
V127.0.0.1
p513
sS'port'
p514
I5002
sS'session_id'
p515
I15196574
sS'tank_id'
p516
I2
saasV46312504
p517
(lp518
S'._._._._._._._._._._.\n| ._.   ._. | ._. ._|\n|_. |     | |_. |_. |\n| ._|   ._|_._._._. |\n| |_.   ._|  _. ._| |\n| . |   |     | | ._|\n| | |_.  _. | |_._| |\n| |_._.   |_. |_. . |\n| ._. | .   |_. |_| |\n| . | ._|_. ._| | . |\n|_|_._._._._._._._|_|'
p519
a(lp520
(dp521
S'ipaddr'
p522
V127.0.0.1
p523
sS'port'
p524
I5001
sS'session_id'
p525
I56157972
sS'tank_id'
p526
I0
sa(dp527
S'ipaddr'
p528
V127.0.0.1
p529
sS'port'
p530
I5002
sS'session_id'
p531
I42905244
sS'tank_id'
p532
I5
saasV50787620
p533
(lp534
S'._._._._._._._._._._.\n| ._.   ._. | ._. ._|\n|_. |     | |_. |_. |\n| ._|   ._|_._._._. |\n| |_.   ._|  _. ._| |\n| . |   |     | | ._|\n| | |_.  _. | |_._| |\n| |_._.   |_. |_. . |\n| ._. | .   |_. |_| |\n| . | ._|_. ._| | . |\n|_|_._._._._._._._|_|'
p535
a(lp536
(dp537
S'ipaddr'
p538
V127.0.0.1
p539
sS'port'
p540
I5001
sS'session_id'
p541
I23922435
sS'tank_id'
p542
I1
sa(dp543
S'ipaddr'
p544
V127.0.0.1
p545
sS'port'
p546
I5002
sS'session_id'
p547
I10016360
sS'tank_id'
p548
I5
saasV11173803
p549
(lp550
S'._._._._._._._._._._.\n| . . .   . .     . |\n|_| | | ._| | ._._| |\n| ._|_._| | ._|_. | |\n| |_._._._._| ._._| |\n| . | ._._._._| ._._|\n| | | | | ._. | | . |\n| | | | ._| . |_._| |\n|_| | | | | |_._| ._|\n| ._| |_. |_._._._| |\n|_._._|_._._._._._._|'
p551
a(lp552
(dp553
S'ipaddr'
p554
V127.0.0.1
p555
sS'port'
p556
I5002
sS'session_id'
p557
I38070016
sS'tank_id'
p558
I0
sa(dp559
S'ipaddr'
p560
V127.0.0.1
p561
sS'port'
p562
I5001
sS'session_id'
p563
I85626439
sS'tank_id'
p564
I0
saasV44622786
p565
(lp566
S'._._._._._._._._._._.\n| ._.   ._. | ._. ._|\n|_. |     | |_. |_. |\n| ._|   ._._._._._. |\n| ._.   ._|  _. ._| |\n| . |   |     | | ._|\n| | |_.  _. | |_._| |\n| |_._.   |_. |_. . |\n| ._. | .   |_. |_| |\n| . | ._|_. ._| | . |\n|_|_._._._._._._._|_|'
p567
a(lp568
(dp569
S'ipaddr'
p570
V127.0.0.1
p571
sS'port'
p572
I5001
sS'session_id'
p573
I42301598
sS'tank_id'
p574
I1
sa(dp575
S'ipaddr'
p576
V127.0.0.1
p577
sS'port'
p578
I5002
sS'session_id'
p579
I38894283
sS'tank_id'
p580
I0
saasV26391728
p581
(lp582
S'._._._._._._._._._._.\n| ._.   ._. | ._. ._|\n|_. |     | |_. |_. |\n| ._|   ._|_._._._. |\n| |_.   ._|  _. ._| |\n| . |   |     | | ._|\n| | |_.  _. | |_._| |\n| |_._.   |_. |_. . |\n| ._. | .   |_. |_| |\n| . | ._|_. ._| | . |\n|_|_._._._._._._._|_|'
p583
a(lp584
(dp585
S'ipaddr'
p586
V127.0.0.1
p587
sS'port'
p588
I5001
sS'session_id'
p589
I54603146
sS'tank_id'
p590
I1
sa(dp591
S'ipaddr'
p592
V127.0.0.1
p593
sS'port'
p594
I5002
sS'session_id'
p595
I53186614
sS'tank_id'
p596
I5
saasV30119155
p597
(lp598
S'._._._._._._._._._._.\n| ._.   ._. | ._. ._|\n|_. |     | |_. |_. |\n| ._|   ._|_._._._. |\n| |_.   ._|  _. ._| |\n| . |   |     | | ._|\n| | |_.  _. | |_._| |\n| |_._.   |_. |_. . |\n| ._. | .   |_. |_| |\n| . | ._|_. ._| | . |\n|_|_._._._._._._._|_|'
p599
a(lp600
(dp601
S'ipaddr'
p602
V127.0.0.1
p603
sS'port'
p604
I5003
sS'session_id'
p605
I32123374
sS'tank_id'
p606
I0
sa(dp607
S'ipaddr'
p608
V127.0.0.1
p609
sS'port'
p610
I5002
sS'session_id'
p611
I39117304
sS'tank_id'
p612
I1
saasV91376687
p613
(lp614
S'._._._._._._._._._._.\n| ._.   ._. | ._. ._|\n|_. |     | |_. |_. |\n| ._|   ._|_._._._. |\n| |_.   ._|  _. ._| |\n| . |   |     | | ._|\n| | |_.  _. | |_._| |\n| |_._.   |_. |_. . |\n| ._. | .   |_. |_| |\n| . | ._|_. ._| | . |\n|_|_._._._._._._._|_|'
p615
a(lp616
(dp617
S'ipaddr'
p618
V127.0.0.1
p619
sS'port'
p620
I5001
sS'session_id'
p621
I67854420
sS'tank_id'
p622
I0
sa(dp623
S'ipaddr'
p624
V127.0.0.1
p625
sS'port'
p626
I5002
sS'session_id'
p627
I58805557
sS'tank_id'
p628
I2
saasV86581140
p629
(lp630
S'._._._._._._._._._._.\n| ._.   ._. | ._. ._|\n|_. |     | |_. |_. |\n| ._|   ._|_._._._. |\n| |_.   ._|  _. ._| |\n| . |   |     | | ._|\n| | |_.  _. | |_._| |\n| |_._.   |_. |_. . |\n| ._. | .   |_. |_| |\n| . | ._|_. ._| | . |\n|_|_._._._._._._._|_|'
p631
a(lp632
(dp633
S'ipaddr'
p634
V127.0.0.1
p635
sS'port'
p636
I5003
sS'session_id'
p637
I53946804
sS'tank_id'
p638
I1
sa(dp639
S'ipaddr'
p640
V127.0.0.1
p641
sS'port'
p642
I5002
sS'session_id'
p643
I31573705
sS'tank_id'
p644
I0
sa(dp645
S'ipaddr'
p646
V127.0.0.1
p647
sS'port'
p648
I5001
sS'session_id'
p649
I84341205
sS'tank_id'
p650
I5
saasV71567751
p651
(lp652
S'._._._._._._._._._._.\n| . . .   . .     . |\n|_| | | ._| | ._._| |\n| ._|_._| | ._|_. | |\n| |_._._._._| ._._| |\n| . | ._._._._| ._._|\n| | | | | ._. | | . |\n| | | | ._| . |_._| |\n|_| | | | | |_._| ._|\n| ._| |_. |_._._._| |\n|_._._|_._._._._._._|'
p653
a(lp654
(dp655
S'ipaddr'
p656
V127.0.0.1
p657
sS'port'
p658
I5001
sS'session_id'
p659
I70975042
sS'tank_id'
p660
I2
sa(dp661
S'ipaddr'
p662
V127.0.0.1
p663
sS'port'
p664
I5002
sS'session_id'
p665
I41611809
sS'tank_id'
p666
I0
saasV80805337
p667
(lp668
S'._._._._._._._._._._.\n|                   |\n| . |_._._|_._| ._| |\n| |_._._._._._._._| |\n|_._. | ._._._| . | |\n| ._._|_. | . | | | |\n| |_._. . | |_._| | |\n|_._._._| |_._. | ._|\n| . | . |_. | ._|_| |\n|                   |\n|_._._._._._._._._._|'
p669
a(lp670
(dp671
S'ipaddr'
p672
V127.0.0.1
p673
sS'port'
p674
I5001
sS'session_id'
p675
I49054985
sS'tank_id'
p676
I0
sa(dp677
S'ipaddr'
p678
V127.0.0.1
p679
sS'port'
p680
I5002
sS'session_id'
p681
I16364311
sS'tank_id'
p682
I0
saassS'wait_for_start'
p683
I01
sS'start_time'
p684
F1411812567.069772
sS'battle_id'
p685
I38926144
sS'waitlist'
p686
g102
s.