(dp0
S'wait_list'
p1
(lp2
sS'user_list'
p3
(lp4
(dp5
S'score'
p6
I100
sS'user_id'
p7
S'test'
p8
sS'screen_name'
p9
S'testuser'
p10
sS'kill_count'
p11
I10
sS'pass'
p12
S'password'
p13
sa(dp14
g6
I200
sg7
S'test2'
p15
sg9
S'testuser2'
p16
sg11
I20
sg12
S'password2'
p17
sa(dp18
S'score'
p19
I0
sS'user_id'
p20
S'86920'
p21
sS'screen_name'
p22
g21
sS'kill_count'
p23
I0
sS'pass'
p24
S'87424'
p25
sa(dp26
g19
I0
sg20
S'32058'
p27
sg22
g27
sg23
I0
sg24
S'51454'
p28
sa(dp29
g19
I0
sg20
S'21269'
p30
sg22
g30
sg23
I0
sg24
S'91811'
p31
sa(dp32
g19
I0
sg20
S'59304'
p33
sg22
g33
sg23
I0
sg24
S'97060'
p34
sa(dp35
g19
I0
sg20
S'84791'
p36
sg22
g36
sg23
I0
sg24
S'50079'
p37
sa(dp38
g19
I0
sg20
S'95241'
p39
sg22
g39
sg23
I0
sg24
S'29357'
p40
sa(dp41
g19
I0
sg20
S'92029'
p42
sg22
g42
sg23
I0
sg24
S'41790'
p43
sa(dp44
g19
I0
sg20
S'12408'
p45
sg22
g45
sg23
I0
sg24
S'62453'
p46
sa(dp47
g19
I0
sg20
S'19623'
p48
sg22
g48
sg23
I0
sg24
S'77681'
p49
sa(dp50
g19
I0
sg20
S'41170'
p51
sg22
g51
sg23
I0
sg24
S'84981'
p52
sa(dp53
g19
I0
sg20
S'44360'
p54
sg22
g54
sg23
I0
sg24
S'22219'
p55
sa(dp56
g19
I0
sg20
S'20449'
p57
sg22
g57
sg23
I0
sg24
S'78612'
p58
sa(dp59
g19
I0
sg20
S'91276'
p60
sg22
g60
sg23
I0
sg24
S'12337'
p61
sa(dp62
g19
I0
sg20
S'91869'
p63
sg22
g63
sg23
I0
sg24
S'85678'
p64
sa(dp65
g19
I0
sg20
S'87230'
p66
sg22
g66
sg23
I0
sg24
S'71273'
p67
sa(dp68
g19
I0
sg20
S'29552'
p69
sg22
g69
sg23
I0
sg24
S'76440'
p70
sa(dp71
g19
I0
sg20
S'69402'
p72
sg22
g72
sg23
I0
sg24
S'38638'
p73
sa(dp74
g19
I0
sg20
S'57217'
p75
sg22
g75
sg23
I0
sg24
S'10115'
p76
sa(dp77
g19
I0
sg20
S'36338'
p78
sg22
g78
sg23
I0
sg24
S'47511'
p79
sa(dp80
g19
I0
sg20
S'34248'
p81
sg22
g81
sg23
I0
sg24
S'74487'
p82
sa(dp83
g19
I0
sg20
S'40514'
p84
sg22
g84
sg23
I0
sg24
S'93428'
p85
sa(dp86
g19
I0
sg20
S'57617'
p87
sg22
g87
sg23
I0
sg24
S'59971'
p88
sa(dp89
g19
I0
sg20
S'59273'
p90
sg22
g90
sg23
I0
sg24
S'93299'
p91
sa(dp92
g19
I0
sg20
S'80479'
p93
sg22
g93
sg23
I0
sg24
S'12021'
p94
sa(dp95
g19
I0
sg20
S'98682'
p96
sg22
g96
sg23
I0
sg24
S'30370'
p97
sa(dp98
g19
I0
sg20
S'90544'
p99
sg22
g99
sg23
I0
sg24
S'29348'
p100
sa(dp101
g19
I0
sg20
S'48586'
p102
sg22
g102
sg23
I0
sg24
S'71450'
p103
sa(dp104
g19
I0
sg20
S'27219'
p105
sg22
g105
sg23
I0
sg24
S'61954'
p106
sa(dp107
g19
I0
sg20
S'31636'
p108
sg22
g108
sg23
I0
sg24
S'83667'
p109
sa(dp110
g19
I0
sg20
S'88192'
p111
sg22
g111
sg23
I0
sg24
S'64803'
p112
sa(dp113
g19
I0
sg20
S'51857'
p114
sg22
g114
sg23
I0
sg24
S'38394'
p115
sa(dp116
g19
I0
sg20
S'77380'
p117
sg22
g117
sg23
I0
sg24
S'76758'
p118
sa(dp119
g19
I0
sg20
S'88625'
p120
sg22
g120
sg23
I0
sg24
S'20920'
p121
sa(dp122
g19
I0
sg20
S'91451'
p123
sg22
g123
sg23
I0
sg24
S'47693'
p124
sa(dp125
g19
I0
sg20
S'46195'
p126
sg22
g126
sg23
I0
sg24
S'54628'
p127
sa(dp128
g19
I0
sg20
S'92606'
p129
sg22
g129
sg23
I0
sg24
S'31986'
p130
sa(dp131
g19
I0
sg20
S'30809'
p132
sg22
g132
sg23
I0
sg24
S'34784'
p133
sa(dp134
g19
I0
sg20
S'78856'
p135
sg22
g135
sg23
I0
sg24
S'79935'
p136
sa(dp137
g19
I0
sg20
S'73854'
p138
sg22
g138
sg23
I0
sg24
S'34459'
p139
sa(dp140
g19
I0
sg20
S'20887'
p141
sg22
g141
sg23
I0
sg24
S'77778'
p142
sa(dp143
g19
I0
sg20
S'30169'
p144
sg22
g144
sg23
I0
sg24
S'63332'
p145
sa(dp146
g19
I0
sg20
S'14761'
p147
sg22
g147
sg23
I0
sg24
S'36564'
p148
sa(dp149
g19
I0
sg20
S'22133'
p150
sg22
g150
sg23
I0
sg24
S'18561'
p151
sa(dp152
g19
I0
sg20
S'29459'
p153
sg22
g153
sg23
I0
sg24
S'14550'
p154
sa(dp155
g19
I0
sg20
S'79269'
p156
sg22
g156
sg23
I0
sg24
S'24557'
p157
sa(dp158
g19
I0
sg20
S'63242'
p159
sg22
g159
sg23
I0
sg24
S'36332'
p160
sa(dp161
g19
I0
sg20
S'36008'
p162
sg22
g162
sg23
I0
sg24
S'63487'
p163
sa(dp164
g19
I0
sg20
S'36332'
p165
sg22
g165
sg23
I0
sg24
S'63269'
p166
sa(dp167
g19
I0
sg20
S'29994'
p168
sg22
g168
sg23
I0
sg24
S'88035'
p169
sa(dp170
g19
I0
sg20
S'63235'
p171
sg22
g171
sg23
I0
sg24
S'37215'
p172
sa(dp173
g19
I0
sg20
S'66731'
p174
sg22
g174
sg23
I0
sg24
S'57708'
p175
sa(dp176
g19
I0
sg20
S'63916'
p177
sg22
g177
sg23
I0
sg24
S'50354'
p178
sa(dp179
g19
I0
sg20
S'51069'
p180
sg22
g180
sg23
I0
sg24
S'56968'
p181
sa(dp182
g19
I0
sg20
S'95874'
p183
sg22
g183
sg23
I0
sg24
S'30268'
p184
sa(dp185
g19
I0
sg20
S'68797'
p186
sg22
g186
sg23
I0
sg24
S'15009'
p187
sa(dp188
g19
I0
sg20
S'70029'
p189
sg22
g189
sg23
I0
sg24
S'61944'
p190
sa(dp191
g19
I0
sg20
S'86922'
p192
sg22
g192
sg23
I0
sg24
S'32198'
p193
sa(dp194
g19
I0
sg20
S'31862'
p195
sg22
g195
sg23
I0
sg24
S'26487'
p196
sa(dp197
g19
I0
sg20
S'78896'
p198
sg22
g198
sg23
I0
sg24
S'23369'
p199
sa(dp200
g19
I0
sg20
S'98416'
p201
sg22
g201
sg23
I0
sg24
S'75474'
p202
sa(dp203
g19
I0
sg20
S'79925'
p204
sg22
g204
sg23
I0
sg24
S'63832'
p205
sa(dp206
g19
I0
sg20
S'24719'
p207
sg22
g207
sg23
I0
sg24
S'74571'
p208
sa(dp209
g19
I0
sg20
S'50168'
p210
sg22
g210
sg23
I0
sg24
S'29146'
p211
sa(dp212
g19
I0
sg20
S'29912'
p213
sg22
g213
sg23
I0
sg24
S'52443'
p214
sa(dp215
g19
I0
sg20
S'36697'
p216
sg22
g216
sg23
I0
sg24
S'57814'
p217
sa(dp218
g19
I0
sg20
S'78925'
p219
sg22
g219
sg23
I0
sg24
S'85195'
p220
sa(dp221
g19
I0
sg20
S'11501'
p222
sg22
g222
sg23
I0
sg24
S'80392'
p223
sa(dp224
g19
I0
sg20
S'13252'
p225
sg22
g225
sg23
I0
sg24
S'68366'
p226
sa(dp227
g19
I0
sg20
S'94078'
p228
sg22
g228
sg23
I0
sg24
S'32080'
p229
sa(dp230
g19
I0
sg20
S'85456'
p231
sg22
g231
sg23
I0
sg24
S'82945'
p232
sa(dp233
g19
I0
sg20
S'64686'
p234
sg22
g234
sg23
I0
sg24
S'99205'
p235
sa(dp236
g19
I0
sg20
S'58038'
p237
sg22
g237
sg23
I0
sg24
S'15584'
p238
sa(dp239
g19
I0
sg20
S'52587'
p240
sg22
g240
sg23
I0
sg24
S'59174'
p241
sa(dp242
g19
I0
sg20
S'85339'
p243
sg22
g243
sg23
I0
sg24
S'71644'
p244
sa(dp245
g19
I0
sg20
S'28527'
p246
sg22
g246
sg23
I0
sg24
S'19705'
p247
sa(dp248
g19
I0
sg20
S'37140'
p249
sg22
g249
sg23
I0
sg24
S'16487'
p250
sa(dp251
g19
I0
sg20
S'47506'
p252
sg22
g252
sg23
I0
sg24
S'34738'
p253
sa(dp254
g19
I0
sg20
S'83702'
p255
sg22
g255
sg23
I0
sg24
S'17549'
p256
sa(dp257
g19
I0
sg20
S'98397'
p258
sg22
g258
sg23
I0
sg24
S'94160'
p259
sa(dp260
g19
I0
sg20
S'93926'
p261
sg22
g261
sg23
I0
sg24
S'16176'
p262
sa(dp263
g19
I0
sg20
S'95530'
p264
sg22
g264
sg23
I0
sg24
S'22051'
p265
sa(dp266
g19
I0
sg20
S'74060'
p267
sg22
g267
sg23
I0
sg24
S'92414'
p268
sa(dp269
g19
I0
sg20
S'65197'
p270
sg22
g270
sg23
I0
sg24
S'20682'
p271
sa(dp272
g19
I0
sg20
S'37520'
p273
sg22
g273
sg23
I0
sg24
S'12377'
p274
sa(dp275
g19
I0
sg20
S'51446'
p276
sg22
g276
sg23
I0
sg24
S'33609'
p277
sa(dp278
g19
I0
sg20
S'78557'
p279
sg22
g279
sg23
I0
sg24
S'36698'
p280
sa(dp281
g19
I0
sg20
S'90362'
p282
sg22
g282
sg23
I0
sg24
S'79007'
p283
sa(dp284
g19
I0
sg20
S'71584'
p285
sg22
g285
sg23
I0
sg24
S'54791'
p286
sa(dp287
g19
I0
sg20
S'45091'
p288
sg22
g288
sg23
I0
sg24
S'30884'
p289
sa(dp290
g19
I0
sg20
S'89816'
p291
sg22
g291
sg23
I0
sg24
S'75193'
p292
sa(dp293
g19
I0
sg20
S'85541'
p294
sg22
g294
sg23
I0
sg24
S'83247'
p295
sa(dp296
g19
I0
sg20
S'34531'
p297
sg22
g297
sg23
I0
sg24
S'24058'
p298
sa(dp299
g19
I0
sg20
S'41238'
p300
sg22
g300
sg23
I0
sg24
S'86469'
p301
sa(dp302
g19
I0
sg20
S'24108'
p303
sg22
g303
sg23
I0
sg24
S'90182'
p304
sa(dp305
g19
I0
sg20
S'38414'
p306
sg22
g306
sg23
I0
sg24
S'46862'
p307
sa(dp308
g19
I0
sg20
S'84636'
p309
sg22
g309
sg23
I0
sg24
S'14432'
p310
sa(dp311
g19
I0
sg20
S'84218'
p312
sg22
g312
sg23
I0
sg24
S'12537'
p313
sa(dp314
g19
I0
sg20
S'39184'
p315
sg22
g315
sg23
I0
sg24
S'87215'
p316
sa(dp317
g19
I0
sg20
S'27992'
p318
sg22
g318
sg23
I0
sg24
S'45778'
p319
sa(dp320
g19
I0
sg20
S'70849'
p321
sg22
g321
sg23
I0
sg24
S'51537'
p322
sasS'start_list'
p323
(lp324
s.